(lp0
ccopy_reg
_reconstructor
p1
(copenalea.mtg.mtg
MTG
p2
c__builtin__
object
p3
Ntp4
Rp5
(dp6
S'_components'
p7
(dp8
I0
(lp9
I1
aI154
aI155
asI1
(lp10
I2
asI2
(lp11
I3
asI8
(lp12
I9
asI80
(lp13
I81
asI155
(lp14
I156
assS'_scale'
p15
(dp16
I0
I0
sI1
I1
sI2
I2
sI3
I3
sI4
I3
sI5
I3
sI6
I3
sI7
I3
sI8
I2
sI9
I3
sI10
I3
sI11
I3
sI12
I3
sI13
I3
sI14
I3
sI15
I3
sI16
I3
sI17
I3
sI18
I3
sI19
I3
sI20
I3
sI21
I3
sI22
I3
sI23
I3
sI24
I3
sI25
I3
sI26
I3
sI27
I3
sI28
I3
sI29
I3
sI30
I3
sI31
I3
sI32
I3
sI33
I3
sI34
I3
sI35
I3
sI36
I3
sI37
I3
sI38
I3
sI39
I3
sI40
I3
sI41
I3
sI42
I3
sI43
I3
sI44
I3
sI45
I3
sI46
I3
sI47
I3
sI48
I3
sI49
I3
sI50
I3
sI51
I3
sI52
I3
sI53
I3
sI54
I3
sI55
I3
sI56
I3
sI57
I3
sI58
I3
sI59
I3
sI60
I3
sI61
I3
sI62
I3
sI63
I3
sI64
I3
sI65
I3
sI66
I3
sI67
I3
sI68
I3
sI69
I3
sI70
I3
sI71
I3
sI72
I3
sI73
I3
sI74
I3
sI75
I3
sI76
I3
sI77
I3
sI78
I3
sI79
I3
sI80
I2
sI81
I3
sI82
I3
sI83
I3
sI84
I3
sI85
I3
sI86
I3
sI87
I3
sI88
I3
sI89
I3
sI90
I3
sI91
I3
sI92
I3
sI93
I3
sI94
I3
sI95
I3
sI96
I3
sI97
I3
sI98
I3
sI99
I3
sI100
I3
sI101
I3
sI102
I3
sI103
I3
sI104
I3
sI105
I3
sI106
I3
sI107
I3
sI108
I3
sI109
I3
sI110
I3
sI111
I3
sI112
I3
sI113
I3
sI114
I3
sI115
I3
sI116
I3
sI117
I3
sI118
I3
sI119
I3
sI120
I3
sI121
I3
sI122
I3
sI123
I3
sI124
I3
sI125
I3
sI126
I3
sI127
I3
sI128
I3
sI129
I3
sI130
I3
sI131
I3
sI132
I3
sI133
I3
sI134
I3
sI135
I3
sI136
I3
sI137
I3
sI138
I3
sI139
I3
sI140
I3
sI141
I3
sI142
I3
sI143
I3
sI144
I3
sI145
I3
sI146
I3
sI147
I3
sI148
I3
sI149
I3
sI150
I3
sI151
I3
sI152
I3
sI153
I3
sI154
I1
sI155
I1
sI156
I2
ssS'_children'
p17
(dp18
I2
(lp19
I8
aI80
asI3
(lp20
I4
asI4
(lp21
I5
asI5
(lp22
I6
asI6
(lp23
I7
asI7
(lp24
I9
aI79
asI9
(lp25
I10
aI12
asI10
(lp26
I11
asI12
(lp27
I13
aI15
asI13
(lp28
I14
asI15
(lp29
I16
aI18
asI16
(lp30
I17
asI18
(lp31
I19
aI21
asI19
(lp32
I20
asI21
(lp33
I22
aI24
asI22
(lp34
I23
asI24
(lp35
I25
asI25
(lp36
I26
aI28
asI26
(lp37
I27
asI28
(lp38
I29
aI31
asI29
(lp39
I30
asI31
(lp40
I32
aI34
asI32
(lp41
I33
asI34
(lp42
I35
aI37
asI35
(lp43
I36
asI37
(lp44
I38
aI40
asI38
(lp45
I39
asI40
(lp46
I41
aI43
asI41
(lp47
I42
asI43
(lp48
I44
aI46
asI44
(lp49
I45
asI46
(lp50
I47
aI49
asI47
(lp51
I48
asI49
(lp52
I50
aI52
asI50
(lp53
I51
asI52
(lp54
I53
aI55
asI53
(lp55
I54
asI55
(lp56
I56
aI58
asI56
(lp57
I57
asI58
(lp58
I59
aI61
asI59
(lp59
I60
asI61
(lp60
I62
aI64
asI62
(lp61
I63
asI64
(lp62
I65
aI67
asI65
(lp63
I66
asI67
(lp64
I68
aI70
asI68
(lp65
I69
asI70
(lp66
I71
aI73
asI71
(lp67
I72
asI73
(lp68
I74
aI76
asI74
(lp69
I75
asI76
(lp70
I77
asI77
(lp71
I78
asI79
(lp72
I81
asI81
(lp73
I82
asI82
(lp74
I83
aI85
asI83
(lp75
I84
asI85
(lp76
I86
aI88
asI86
(lp77
I87
asI88
(lp78
I89
aI91
asI89
(lp79
I90
asI91
(lp80
I92
aI94
asI92
(lp81
I93
asI94
(lp82
I95
aI97
asI95
(lp83
I96
asI97
(lp84
I98
aI100
asI98
(lp85
I99
asI100
(lp86
I101
aI103
asI101
(lp87
I102
asI103
(lp88
I104
aI106
asI104
(lp89
I105
asI106
(lp90
I107
aI109
asI107
(lp91
I108
asI109
(lp92
I110
aI112
asI110
(lp93
I111
asI112
(lp94
I113
aI115
asI113
(lp95
I114
asI115
(lp96
I116
aI118
asI116
(lp97
I117
asI118
(lp98
I119
aI121
asI119
(lp99
I120
asI121
(lp100
I122
aI124
asI122
(lp101
I123
asI124
(lp102
I125
aI127
asI125
(lp103
I126
asI127
(lp104
I128
aI130
asI128
(lp105
I129
asI130
(lp106
I131
aI133
asI131
(lp107
I132
asI133
(lp108
I134
aI136
asI134
(lp109
I135
asI136
(lp110
I137
aI139
asI137
(lp111
I138
asI139
(lp112
I140
aI142
asI140
(lp113
I141
asI142
(lp114
I143
aI145
asI143
(lp115
I144
asI145
(lp116
I146
aI148
asI146
(lp117
I147
asI148
(lp118
I149
asI149
(lp119
I150
asI151
(lp120
I3
asI152
(lp121
I151
asI153
(lp122
I152
assS'_root'
p123
I0
sS'_complex'
p124
(dp125
I1
I0
sI2
I1
sI3
I2
sI9
I8
sI81
I80
sI154
I0
sI155
I0
sI156
I155
ssS'_parent'
p126
(dp127
I0
NsI3
I151
sI4
I3
sI5
I4
sI6
I5
sI7
I6
sI8
I2
sI9
I7
sI10
I9
sI11
I10
sI12
I9
sI13
I12
sI14
I13
sI15
I12
sI16
I15
sI17
I16
sI18
I15
sI19
I18
sI20
I19
sI21
I18
sI22
I21
sI23
I22
sI24
I21
sI25
I24
sI26
I25
sI27
I26
sI28
I25
sI29
I28
sI30
I29
sI31
I28
sI32
I31
sI33
I32
sI34
I31
sI35
I34
sI36
I35
sI37
I34
sI38
I37
sI39
I38
sI40
I37
sI41
I40
sI42
I41
sI43
I40
sI44
I43
sI45
I44
sI46
I43
sI47
I46
sI48
I47
sI49
I46
sI50
I49
sI51
I50
sI52
I49
sI53
I52
sI54
I53
sI55
I52
sI56
I55
sI57
I56
sI58
I55
sI59
I58
sI60
I59
sI61
I58
sI62
I61
sI63
I62
sI64
I61
sI65
I64
sI66
I65
sI67
I64
sI68
I67
sI69
I68
sI70
I67
sI71
I70
sI72
I71
sI73
I70
sI74
I73
sI75
I74
sI76
I73
sI77
I76
sI78
I77
sI79
I7
sI80
I2
sI81
I79
sI82
I81
sI83
I82
sI84
I83
sI85
I82
sI86
I85
sI87
I86
sI88
I85
sI89
I88
sI90
I89
sI91
I88
sI92
I91
sI93
I92
sI94
I91
sI95
I94
sI96
I95
sI97
I94
sI98
I97
sI99
I98
sI100
I97
sI101
I100
sI102
I101
sI103
I100
sI104
I103
sI105
I104
sI106
I103
sI107
I106
sI108
I107
sI109
I106
sI110
I109
sI111
I110
sI112
I109
sI113
I112
sI114
I113
sI115
I112
sI116
I115
sI117
I116
sI118
I115
sI119
I118
sI120
I119
sI121
I118
sI122
I121
sI123
I122
sI124
I121
sI125
I124
sI126
I125
sI127
I124
sI128
I127
sI129
I128
sI130
I127
sI131
I130
sI132
I131
sI133
I130
sI134
I133
sI135
I134
sI136
I133
sI137
I136
sI138
I137
sI139
I136
sI140
I139
sI141
I140
sI142
I139
sI143
I142
sI144
I143
sI145
I142
sI146
I145
sI147
I146
sI148
I145
sI149
I148
sI150
I149
sI151
I152
sI152
I153
ssS'_graph_properties'
p128
(dp129
sS'_properties'
p130
(dp131
S'vid_collar'
p132
(dp133
I0
I3
ssS'gs'
p134
(dp135
I129
cnumpy.core.multiarray
scalar
p136
(cnumpy
dtype
p137
(S'f8'
p138
I0
I1
tp139
Rp140
(I3
S'<'
p141
NNNI-1
I-1
I0
tp142
bS'\x9ddl\xea\xf7\xc3\xd8?'
p143
tp144
Rp145
sI132
g136
(g140
S'\x89h\xf9P$a\xd6?'
p146
tp147
Rp148
sI135
g136
(g140
S'\xc5A\x85xA\x13\xd9?'
p149
tp150
Rp151
sI138
g136
(g140
S'\x94&\x1d\x01\xae\xbf\xd6?'
p152
tp153
Rp154
sI11
g136
(g140
S'tV\x90\x97\xd6\x00\xd7?'
p155
tp156
Rp157
sI141
g136
(g140
S'\xe4\xb4\x0b\xa3\x8aK\xd7?'
p158
tp159
Rp160
sI14
g136
(g140
S'\xa0{\x85r_\x07\xd9?'
p161
tp162
Rp163
sI144
g136
(g140
S'\xa0W\x11\xe1\xf7\x8c\xd6?'
p164
tp165
Rp166
sI17
g136
(g140
S'\xfcX\xaf\x19:R\xd7?'
p167
tp168
Rp169
sI147
g136
(g140
S'\x8f5\xab]<k\xd8?'
p170
tp171
Rp172
sI20
g136
(g140
S'\x14\x05\x95\xd1\xf2\xcf\xd8?'
p173
tp174
Rp175
sI150
g136
(g140
S'\x1b\xef\xcb\x08Y_\xd7?'
p176
tp177
Rp178
sI23
g136
(g140
S'\x87\xbe\x02\r\xe5\x8e\xd7?'
p179
tp180
Rp181
sI27
g136
(g140
S'`\xfa\xc9\xc2#\x99\xd7?'
p182
tp183
Rp184
sI30
g136
(g140
S'\xb4\xff\xb8j\xaa\xde\xd6?'
p185
tp186
Rp187
sI33
g136
(g140
S'\xbed\x15\x89\xb3.\xd8?'
p188
tp189
Rp190
sI36
g136
(g140
S'\xbbP\xf2\xa5\xa8\xf2\xd6?'
p191
tp192
Rp193
sI39
g136
(g140
S'$\n\x19\xe1\xa3\x1a\xd7?'
p194
tp195
Rp196
sI42
g136
(g140
S'\\\x7f"\xc4\xc9\xef\xd7?'
p197
tp198
Rp199
sI45
g136
(g140
S'.[\x7f\xa4\x9f\xb4\xd6?'
p200
tp201
Rp202
sI48
g136
(g140
S'\xca <\xc0\xc0y\xd7?'
p203
tp204
Rp205
sI51
g136
(g140
S'\t,6\xc0\xa7;\xd8?'
p206
tp207
Rp208
sI54
g136
(g140
S'L?\xd5\x85\xdfT\xd7?'
p209
tp210
Rp211
sI57
g136
(g140
S'(#\x8a\xc9\x17\xa0\xd7?'
p212
tp213
Rp214
sI60
g136
(g140
S'\xe6%\x96\xc3K.\xd7?'
p215
tp216
Rp217
sI63
g136
(g140
S'\x8fK\x14\xa27\xa3\xd7?'
p218
tp219
Rp220
sI66
g136
(g140
S'\x8f\x95\x9b\x12$\x92\xd6?'
p221
tp222
Rp223
sI69
g136
(g140
S'T\x07O|4q\xd8?'
p224
tp225
Rp226
sI72
g136
(g140
S'\xc8\xa8\xe5\xed\xe4\xe8\xd6?'
p227
tp228
Rp229
sI75
g136
(g140
S'\xea}u\xc0\xcc\x93\xd7?'
p230
tp231
Rp232
sI78
g136
(g140
S'm*\x85\xcdvB\xd8?'
p233
tp234
Rp235
sI84
g136
(g140
S',:G\xfe\x142\xd7?'
p236
tp237
Rp238
sI87
g136
(g140
S'\xa55\x8e\xfc8\xd4\xd7?'
p239
tp240
Rp241
sI90
g136
(g140
S'\xd7\x90`}\x134\xd7?'
p242
tp243
Rp244
sI93
g136
(g140
S'\x0c\xe3[\xaf\x8f\xe3\xd7?'
p245
tp246
Rp247
sI96
g136
(g140
S'\x99(\x96s\x96\xac\xd7?'
p248
tp249
Rp250
sI99
g136
(g140
S'\x0b\x01\x9bj\x97\x8a\xd8?'
p251
tp252
Rp253
sI102
g136
(g140
S'\x13j\t\xaf\x14\x05\xd7?'
p254
tp255
Rp256
sI105
g136
(g140
S'yi\x13d`\xde\xd7?'
p257
tp258
Rp259
sI108
g136
(g140
S'@7\x18(0\x8b\xd7?'
p260
tp261
Rp262
sI111
g136
(g140
S'Q\x16Q\x16\x9a\xff\xd7?'
p263
tp264
Rp265
sI114
g136
(g140
S'<\x0e\x81\xec\x91\x8e\xd7?'
p266
tp267
Rp268
sI117
g136
(g140
S'B\xd7\xcd\x12\x85\x89\xd7?'
p269
tp270
Rp271
sI120
g136
(g140
S'\xceS\xbb \xaa&\xd7?'
p272
tp273
Rp274
sI123
g136
(g140
S'\xf6\r\x0e\xec&\xec\xd6?'
p275
tp276
Rp277
sI126
g136
(g140
S'\xd8G\xdd\xa4\xc1\xbc\xd6?'
p278
tp279
Rp280
ssS'opticals'
p281
(dp282
I129
(F0.06
F0.07
tp283
sI132
g283
sI135
g283
sI138
g283
sI11
g283
sI141
g283
sI14
g283
sI144
g283
sI17
g283
sI147
g283
sI20
g283
sI150
g283
sI23
g283
sI27
g283
sI156
(F0.06
F0.07
tp284
sI30
g283
sI33
g283
sI36
g283
sI39
g283
sI42
g283
sI45
g283
sI48
g283
sI51
g283
sI54
g283
sI57
g283
sI60
g283
sI63
g283
sI66
g283
sI69
g283
sI72
g283
sI75
g283
sI78
g283
sI84
g283
sI87
g283
sI90
g283
sI93
g283
sI96
g283
sI99
g283
sI102
g283
sI105
g283
sI108
g283
sI111
g283
sI114
g283
sI117
g283
sI120
g283
sI123
g283
sI126
g283
ssS'Na'
p285
(dp286
I129
g136
(g140
S'E\xf0e\x06\xa5T\x00@'
p287
tp288
Rp289
sI132
g136
(g140
S'\x80\xf8\xd7l\x834\x00@'
p290
tp291
Rp292
sI135
g136
(g140
S'\xfa&\xb0\xdc\x85~\x00@'
p293
tp294
Rp295
sI138
g136
(g140
S'\xec\xa7\xeb\xecc"\x00@'
p296
tp297
Rp298
sI11
g136
(g140
S'\xf2\x05\x8b\x00f\x0e\x00@'
p299
tp300
Rp301
sI141
g136
(g140
S'\x0e\x14\tCR}\x00@'
p302
tp303
Rp304
sI14
g136
(g140
S'\x9dN\xa5\xa5\xd9|\x00@'
p305
tp306
Rp307
sI144
g136
(g140
S'\x7f\xd9\x9b\x90b\x0e\x00@'
p308
tp309
Rp310
sI17
g136
(g140
S"J\xb0\x99\xa1\x1b'\x00@"
p311
tp312
Rp313
sI147
g136
(g140
S'y\xe9t\x97\x85T\x00@'
p314
tp315
Rp316
sI20
g136
(g140
S'Vp\xf1\xd8\xf6c\x00@'
p317
tp318
Rp319
sI150
g136
(g140
S'\xac \x94\x89,q\x00@'
p320
tp321
Rp322
sI23
g136
(g140
S'\xf4\x00\xac\x88\x17\x07\x00@'
p323
tp324
Rp325
sI27
g136
(g140
S'\xf6AZk\xb3\x1e\x00@'
p326
tp327
Rp328
sI30
g136
(g140
S':y\x0f\xb6M\xe0\xff?'
p329
tp330
Rp331
sI33
g136
(g140
S'\x8c\x98x\x8dMK\x00@'
p332
tp333
Rp334
sI36
g136
(g140
S'\xe4\xfe\x97\x8e\x9e\xe5\xff?'
p335
tp336
Rp337
sI39
g136
(g140
S'\xed/?xi\xfa\xff?'
p338
tp339
Rp340
sI42
g136
(g140
S'zm\xd4\xf3\xf7X\x00@'
p341
tp342
Rp343
sI45
g136
(g140
S'`Y\x81\xbb\x95\xfd\xff?'
p344
tp345
Rp346
sI48
g136
(g140
S'S\xed\xec1\x8c&\x00@'
p347
tp348
Rp349
sI51
g136
(g140
S'\xe1\xe1*\xce\xb5p\x00@'
p350
tp351
Rp352
sI54
g136
(g140
S'\x14\xbf\x9f@\xb0;\x00@'
p353
tp354
Rp355
sI57
g136
(g140
S'\xbf8>#\x8aA\x00@'
p356
tp357
Rp358
sI60
g136
(g140
S'\x19\xaa\x89.\\D\x00@'
p359
tp360
Rp361
sI63
g136
(g140
S'&\x05u"\xae=\x00@'
p362
tp363
Rp364
sI66
g136
(g140
S'\xb3\xd8}pJ!\x00@'
p365
tp366
Rp367
sI69
g136
(g140
S'\x9c\x93\x0c\xca\x8b\x8d\x00@'
p368
tp369
Rp370
sI72
g136
(g140
S'\xa3&K\xcad+\x00@'
p371
tp372
Rp373
sI75
g136
(g140
S'\x90\xb2\xaf\xca\x07i\x00@'
p374
tp375
Rp376
sI78
g136
(g140
S'\xd3\xc9\xach\xc0\xbc\x00@'
p377
tp378
Rp379
sI84
g136
(g140
S')L\x11\xe8\xec\xf7\xff?'
p380
tp381
Rp382
sI87
g136
(g140
S'\\60l\xb4$\x00@'
p383
tp384
Rp385
sI90
g136
(g140
S'\xe8\xc62}3\x04\x00@'
p386
tp387
Rp388
sI93
g136
(g140
S'\x14\xc5u_\x0bK\x00@'
p389
tp390
Rp391
sI96
g136
(g140
S'\xd8I9\xc6\xb0\x1c\x00@'
p392
tp393
Rp394
sI99
g136
(g140
S'\x81V\x83\x0cte\x00@'
p395
tp396
Rp397
sI102
g136
(g140
S'\x96w\xd1\xc8\xbf.\x00@'
p398
tp399
Rp400
sI105
g136
(g140
S'\x03\x04\xf4\x05\x8aR\x00@'
p401
tp402
Rp403
sI108
g136
(g140
S'\xbf\x0f\xef\xc608\x00@'
p404
tp405
Rp406
sI111
g136
(g140
S'xs\xb1\x16\xa6b\x00@'
p407
tp408
Rp409
sI114
g136
(g140
S'S\x9b\x04H\xfcV\x00@'
p410
tp411
Rp412
sI117
g136
(g140
S'!\xc6\xb5+\xa0\x1a\x00@'
p413
tp414
Rp415
sI120
g136
(g140
S"\x83\xa4\x98\xc7n'\x00@"
p416
tp417
Rp418
sI123
g136
(g140
S'\xc4\xcb\xb7\x99\xe7i\x00@'
p419
tp420
Rp421
sI126
g136
(g140
S'c%s\x05\xb5!\x00@'
p422
tp423
Rp424
ssS'psi_head'
p425
(dp426
I3
g136
(g140
S'0\xe5\x162\x0c\x0c\xe0\xbf'
p427
tp428
Rp429
sI4
g136
(g140
S'H\xc1\xc0uy\x18\xe0\xbf'
p430
tp431
Rp432
sI5
g136
(g140
S'\xdb\x16\x0c\xd7\x8b\x1c\xe0\xbf'
p433
tp434
Rp435
sI6
g136
(g140
S'\xca!\xa3\xdb\xbf\x1f\xe0\xbf'
p436
tp437
Rp438
sI7
g136
(g140
S'MZ\x84\xd2\xaa#\xe0\xbf'
p439
tp440
Rp441
sI9
g136
(g140
S'\x8aL\xa4\xa1c%\xe0\xbf'
p442
tp443
Rp444
sI10
g136
(g140
S'\xbc\x93\xa8\xb3_$\xe0\xbf'
p445
tp446
Rp447
sI11
g136
(g140
S'\xbc\x93\xa8\xb3_$\xe0\xbf'
p448
tp449
Rp450
sI12
g136
(g140
S'\xdd\xe6\x1e\n\xdf%\xe0\xbf'
p451
tp452
Rp453
sI13
g136
(g140
S'\xcc\x15\x89\xb0\xf8"\xe0\xbf'
p454
tp455
Rp456
sI14
g136
(g140
S'\xcc\x15\x89\xb0\xf8"\xe0\xbf'
p457
tp458
Rp459
sI15
g136
(g140
S'f\xfeTfv(\xe0\xbf'
p460
tp461
Rp462
sI16
g136
(g140
S"\xcc\xa1S\xbf\x1a'\xe0\xbf"
p463
tp464
Rp465
sI17
g136
(g140
S"\xcc\xa1S\xbf\x1a'\xe0\xbf"
p466
tp467
Rp468
sI18
g136
(g140
S'\xf1P,;\x98-\xe0\xbf'
p469
tp470
Rp471
sI19
g136
(g140
S'\x047\x94\x1f7-\xe0\xbf'
p472
tp473
Rp474
sI20
g136
(g140
S'\x047\x94\x1f7-\xe0\xbf'
p475
tp476
Rp477
sI21
g136
(g140
S'\xe4\xd9\xac$P2\xe0\xbf'
p478
tp479
Rp480
sI22
g136
(g140
S'\x0c\x00\xfaB\xcf2\xe0\xbf'
p481
tp482
Rp483
sI23
g136
(g140
S'\x0c\x00\xfaB\xcf2\xe0\xbf'
p484
tp485
Rp486
sI24
g136
(g140
S'\xfc\x1ay\xe4\xe97\xe0\xbf'
p487
tp488
Rp489
sI25
g136
(g140
S'\x1d\xd5\xde\xbbX<\xe0\xbf'
p490
tp491
Rp492
sI26
g136
(g140
S'\x1cf\xb8]$=\xe0\xbf'
p493
tp494
Rp495
sI27
g136
(g140
S'\x1cf\xb8]$=\xe0\xbf'
p496
tp497
Rp498
sI28
g136
(g140
S'nDU\xf69@\xe0\xbf'
p499
tp500
Rp501
sI29
g136
(g140
S'\xe8\xf6\x1f\xab+?\xe0\xbf'
p502
tp503
Rp504
sI30
g136
(g140
S'\xe8\xf6\x1f\xab+?\xe0\xbf'
p505
tp506
Rp507
sI31
g136
(g140
S'\x0e\xc4\x13\xea\xcbC\xe0\xbf'
p508
tp509
Rp510
sI32
g136
(g140
S'\x98T\x98\x9e6F\xe0\xbf'
p511
tp512
Rp513
sI33
g136
(g140
S'\x98T\x98\x9e6F\xe0\xbf'
p514
tp515
Rp516
sI34
g136
(g140
S'\xd0\x94u\xd5%J\xe0\xbf'
p517
tp518
Rp519
sI35
g136
(g140
S'\x86\xbf\xd6)\xa8I\xe0\xbf'
p520
tp521
Rp522
sI36
g136
(g140
S'\x86\xbf\xd6)\xa8I\xe0\xbf'
p523
tp524
Rp525
sI37
g136
(g140
S'\x08\x1b\xc1\xd6rM\xe0\xbf'
p526
tp527
Rp528
sI38
g136
(g140
S'\xf3\x81\xb6M\xe7M\xe0\xbf'
p529
tp530
Rp531
sI39
g136
(g140
S'\xf3\x81\xb6M\xe7M\xe0\xbf'
p532
tp533
Rp534
sI40
g136
(g140
S'Z\x9c\x16BFS\xe0\xbf'
p535
tp536
Rp537
sI41
g136
(g140
S'\xd7\xd3\xad\xbb\xc9T\xe0\xbf'
p538
tp539
Rp540
sI42
g136
(g140
S'\xd7\xd3\xad\xbb\xc9T\xe0\xbf'
p541
tp542
Rp543
sI43
g136
(g140
S'=C\x9f\xb2\xe9X\xe0\xbf'
p544
tp545
Rp546
sI44
g136
(g140
S'\x00\xbb\xe1\xb1\xcfZ\xe0\xbf'
p547
tp548
Rp549
sI45
g136
(g140
S'\x00\xbb\xe1\xb1\xcfZ\xe0\xbf'
p550
tp551
Rp552
sI46
g136
(g140
S'\x84\x7f\x15\xdd\xa5_\xe0\xbf'
p553
tp554
Rp555
sI47
g136
(g140
S'\xa0\xa8\xa4\xfeab\xe0\xbf'
p556
tp557
Rp558
sI48
g136
(g140
S'\xa0\xa8\xa4\xfeab\xe0\xbf'
p559
tp560
Rp561
sI49
g136
(g140
S'\xec\xbc\xfcQie\xe0\xbf'
p562
tp563
Rp564
sI50
g136
(g140
S'\rrgU\x7fh\xe0\xbf'
p565
tp566
Rp567
sI51
g136
(g140
S'\rrgU\x7fh\xe0\xbf'
p568
tp569
Rp570
sI52
g136
(g140
S'\r\x05[\xc5\x9fn\xe0\xbf'
p571
tp572
Rp573
sI53
g136
(g140
S'\xa8&?<kq\xe0\xbf'
p574
tp575
Rp576
sI54
g136
(g140
S'\xa8&?<kq\xe0\xbf'
p577
tp578
Rp579
sI55
g136
(g140
S'\xd4\x1e|\xc8\x10x\xe0\xbf'
p580
tp581
Rp582
sI56
g136
(g140
S'\x97\xc4m\xe0\xcdz\xe0\xbf'
p583
tp584
Rp585
sI57
g136
(g140
S'\x97\xc4m\xe0\xcdz\xe0\xbf'
p586
tp587
Rp588
sI58
g136
(g140
S'\x8c\xdcl2\x99\x7f\xe0\xbf'
p589
tp590
Rp591
sI59
g136
(g140
S'p\xb9\xfa\xa3O\x83\xe0\xbf'
p592
tp593
Rp594
sI60
g136
(g140
S'p\xb9\xfa\xa3O\x83\xe0\xbf'
p595
tp596
Rp597
sI61
g136
(g140
S'\x95\x1cL\xf0\x05\x88\xe0\xbf'
p598
tp599
Rp600
sI62
g136
(g140
S'Z\xae6\xe5\xb7\x8c\xe0\xbf'
p601
tp602
Rp603
sI63
g136
(g140
S'Z\xae6\xe5\xb7\x8c\xe0\xbf'
p604
tp605
Rp606
sI64
g136
(g140
S' \x0b\\\xe5\x82\x8e\xe0\xbf'
p607
tp608
Rp609
sI65
g136
(g140
S'\xab)\x8a\xfdf\x90\xe0\xbf'
p610
tp611
Rp612
sI66
g136
(g140
S'\xab)\x8a\xfdf\x90\xe0\xbf'
p613
tp614
Rp615
sI67
g136
(g140
S'\x14\xedKf|\x95\xe0\xbf'
p616
tp617
Rp618
sI68
g136
(g140
S'!.\xd3\xef\xb8\x9a\xe0\xbf'
p619
tp620
Rp621
sI69
g136
(g140
S'!.\xd3\xef\xb8\x9a\xe0\xbf'
p622
tp623
Rp624
sI70
g136
(g140
S'\xd67\xd7\x88\xe4\x9c\xe0\xbf'
p625
tp626
Rp627
sI71
g136
(g140
S'\x92\xb0\xab\xd9\xe7\x9d\xe0\xbf'
p628
tp629
Rp630
sI72
g136
(g140
S'\x92\xb0\xab\xd9\xe7\x9d\xe0\xbf'
p631
tp632
Rp633
sI73
g136
(g140
S']/\xdc\x93\x89\xa1\xe0\xbf'
p634
tp635
Rp636
sI74
g136
(g140
S'h\xbf\x9b-O\xa5\xe0\xbf'
p637
tp638
Rp639
sI75
g136
(g140
S'h\xbf\x9b-O\xa5\xe0\xbf'
p640
tp641
Rp642
sI76
g136
(g140
S'p2\xc0\xa5\xec\xa5\xe0\xbf'
p643
tp644
Rp645
sI77
g136
(g140
S'\xac\xdf\xddD\xb6\xa7\xe0\xbf'
p646
tp647
Rp648
sI78
g136
(g140
S'\xac\xdf\xddD\xb6\xa7\xe0\xbf'
p649
tp650
Rp651
sI79
g136
(g140
S'\t\x8c 1\x19&\xe0\xbf'
p652
tp653
Rp654
sI81
g136
(g140
S'$\xfeA\xc8\x94&\xe0\xbf'
p655
tp656
Rp657
sI82
g136
(g140
S":\xbd\xcc\xd9\x93'\xe0\xbf"
p658
tp659
Rp660
sI83
g136
(g140
S'\x86h\x87\xbc\xa8$\xe0\xbf'
p661
tp662
Rp663
sI84
g136
(g140
S'\x86h\x87\xbc\xa8$\xe0\xbf'
p664
tp665
Rp666
sI85
g136
(g140
S'\xaa^6\xbb\xa0+\xe0\xbf'
p667
tp668
Rp669
sI86
g136
(g140
S'\xb1C\xa8+u+\xe0\xbf'
p670
tp671
Rp672
sI87
g136
(g140
S'\xb1C\xa8+u+\xe0\xbf'
p673
tp674
Rp675
sI88
g136
(g140
S'\x99\xda\x11b\xd2.\xe0\xbf'
p676
tp677
Rp678
sI89
g136
(g140
S'\xe2\xbc\x02"\xdc,\xe0\xbf'
p679
tp680
Rp681
sI90
g136
(g140
S'\xe2\xbc\x02"\xdc,\xe0\xbf'
p682
tp683
Rp684
sI91
g136
(g140
S'J\xc9:\xa3U2\xe0\xbf'
p685
tp686
Rp687
sI92
g136
(g140
S'X\x13\x89\xed\x156\xe0\xbf'
p688
tp689
Rp690
sI93
g136
(g140
S'X\x13\x89\xed\x156\xe0\xbf'
p691
tp692
Rp693
sI94
g136
(g140
S'\xf2\xb8\x07\x06N7\xe0\xbf'
p694
tp695
Rp696
sI95
g136
(g140
S' \xfay2\x8a3\xe0\xbf'
p697
tp698
Rp699
sI96
g136
(g140
S' \xfay2\x8a3\xe0\xbf'
p700
tp701
Rp702
sI97
g136
(g140
S'\x9a\x92%^x<\xe0\xbf'
p703
tp704
Rp705
sI98
g136
(g140
S'n\xc9\xc4\xa3\x87B\xe0\xbf'
p706
tp707
Rp708
sI99
g136
(g140
S'n\xc9\xc4\xa3\x87B\xe0\xbf'
p709
tp710
Rp711
sI100
g136
(g140
S'\xc8\\\xc8`6A\xe0\xbf'
p712
tp713
Rp714
sI101
g136
(g140
S'>s<\x0b:@\xe0\xbf'
p715
tp716
Rp717
sI102
g136
(g140
S'>s<\x0b:@\xe0\xbf'
p718
tp719
Rp720
sI103
g136
(g140
S'\x8c@\xe8T\x13G\xe0\xbf'
p721
tp722
Rp723
sI104
g136
(g140
S'\x11\xf2\x92\xf8$H\xe0\xbf'
p724
tp725
Rp726
sI105
g136
(g140
S'\x11\xf2\x92\xf8$H\xe0\xbf'
p727
tp728
Rp729
sI106
g136
(g140
S'\x8c\xad+\xd0\xb1M\xe0\xbf'
p730
tp731
Rp732
sI107
g136
(g140
S'\x10\xd2Q;\xc3P\xe0\xbf'
p733
tp734
Rp735
sI108
g136
(g140
S'\x10\xd2Q;\xc3P\xe0\xbf'
p736
tp737
Rp738
sI109
g136
(g140
S'$\xb5\xc7z\xe8S\xe0\xbf'
p739
tp740
Rp741
sI110
g136
(g140
S'\x0f\x05\x909kW\xe0\xbf'
p742
tp743
Rp744
sI111
g136
(g140
S'\x0f\x05\x909kW\xe0\xbf'
p745
tp746
Rp747
sI112
g136
(g140
S'\x96\x1a\xfa\x88\x10^\xe0\xbf'
p748
tp749
Rp750
sI113
g136
(g140
S"\xbc\x9d\xb6'\xa9_\xe0\xbf"
p751
tp752
Rp753
sI114
g136
(g140
S"\xbc\x9d\xb6'\xa9_\xe0\xbf"
p754
tp755
Rp756
sI115
g136
(g140
S'\x08\xb1\x02\xc3\xe1d\xe0\xbf'
p757
tp758
Rp759
sI116
g136
(g140
S'\xaaW\x1cq\xb7h\xe0\xbf'
p760
tp761
Rp762
sI117
g136
(g140
S'\xaaW\x1cq\xb7h\xe0\xbf'
p763
tp764
Rp765
sI118
g136
(g140
S'\xd0\xd88\xefEj\xe0\xbf'
p766
tp767
Rp768
sI119
g136
(g140
S'\xaf\x06g.\xa4l\xe0\xbf'
p769
tp770
Rp771
sI120
g136
(g140
S'\xaf\x06g.\xa4l\xe0\xbf'
p772
tp773
Rp774
sI121
g136
(g140
S'\xb7\xde\x04\x8f1q\xe0\xbf'
p775
tp776
Rp777
sI122
g136
(g140
S'\xc6\x88\x10 \x1es\xe0\xbf'
p778
tp779
Rp780
sI123
g136
(g140
S'\xc6\x88\x10 \x1es\xe0\xbf'
p781
tp782
Rp783
sI124
g136
(g140
S"\xa8\xdb&@'w\xe0\xbf"
p784
tp785
Rp786
sI125
g136
(g140
S'\x9ewK\x02Tz\xe0\xbf'
p787
tp788
Rp789
sI126
g136
(g140
S'\x9ewK\x02Tz\xe0\xbf'
p790
tp791
Rp792
sI127
g136
(g140
S'0\xb2WMG}\xe0\xbf'
p793
tp794
Rp795
sI128
g136
(g140
S'\xe0\x01?\xb8\xa2\x80\xe0\xbf'
p796
tp797
Rp798
sI129
g136
(g140
S'\xe0\x01?\xb8\xa2\x80\xe0\xbf'
p799
tp800
Rp801
sI130
g136
(g140
S'\\\xd2\xc2\xce\xca\x81\xe0\xbf'
p802
tp803
Rp804
sI131
g136
(g140
S'\xa8\x85\xbd\xba\x95\x84\xe0\xbf'
p805
tp806
Rp807
sI132
g136
(g140
S'\xa8\x85\xbd\xba\x95\x84\xe0\xbf'
p808
tp809
Rp810
sI133
g136
(g140
S'\x13\xe5\xdaC\xbd\x87\xe0\xbf'
p811
tp812
Rp813
sI134
g136
(g140
S'V.\x9f\xa4\xc5\x8d\xe0\xbf'
p814
tp815
Rp816
sI135
g136
(g140
S'V.\x9f\xa4\xc5\x8d\xe0\xbf'
p817
tp818
Rp819
sI136
g136
(g140
S'\x0en\r\xba=\x8c\xe0\xbf'
p820
tp821
Rp822
sI137
g136
(g140
S'\x92\x8a{\xde\x06\x91\xe0\xbf'
p823
tp824
Rp825
sI138
g136
(g140
S'\x92\x8a{\xde\x06\x91\xe0\xbf'
p826
tp827
Rp828
sI139
g136
(g140
S'\xd0ya\x19\xe8\x91\xe0\xbf'
p829
tp830
Rp831
sI140
g136
(g140
S'\xb8\x8f\xbe\x0eF\x93\xe0\xbf'
p832
tp833
Rp834
sI141
g136
(g140
S'\xb8\x8f\xbe\x0eF\x93\xe0\xbf'
p835
tp836
Rp837
sI142
g136
(g140
S'\xc2a\xb2m\x87\x97\xe0\xbf'
p838
tp839
Rp840
sI143
g136
(g140
S'\xf0\xcc\xacu\xc9\x9d\xe0\xbf'
p841
tp842
Rp843
sI144
g136
(g140
S'\xf0\xcc\xacu\xc9\x9d\xe0\xbf'
p844
tp845
Rp846
sI145
g136
(g140
S"\x02'C\xd2\x19\x9c\xe0\xbf"
p847
tp848
Rp849
sI146
g136
(g140
S'\x82\x9a\xc4 \xf7\x9e\xe0\xbf'
p850
tp851
Rp852
sI147
g136
(g140
S'\x82\x9a\xc4 \xf7\x9e\xe0\xbf'
p853
tp854
Rp855
sI148
g136
(g140
S'\xe8p\xe9 :\xa0\xe0\xbf'
p856
tp857
Rp858
sI149
g136
(g140
S'Hr\xff\xb5m\xa4\xe0\xbf'
p859
tp860
Rp861
sI150
g136
(g140
S'Hr\xff\xb5m\xa4\xe0\xbf'
p862
tp863
Rp864
sI151
F-0.5
sI152
F-0.5
sI153
F-0.5
ssS'BotPosition'
p865
(dp866
I3
cnumpy.core.multiarray
_reconstruct
p867
(cnumpy
ndarray
p868
(I0
tp869
S'b'
p870
tp871
Rp872
(I1
(I3
tp873
g140
I00
S'\x00\x00\x00\x00\x00\x00\x00\x00\x00\x00\x00\x00\x00\x00\x00\x00{\x14\xaeG\xe1\xfa>@'
p874
tp875
bsI4
g867
(g868
(I0
tp876
g870
tp877
Rp878
(I1
(I3
tp879
g140
I00
S'q=\n\xd7\xa3p!\xc0\xfaQ\xb8\x1e\x85\xeb\xfd?q=\n\xd7\xa3\xd0A@'
p880
tp881
bsI5
g867
(g868
(I0
tp882
g870
tp883
Rp884
(I1
(I3
tp885
g140
I00
S'333333\x1c\xc0\x13\\\x8f\xc2\xf5(\xec\xbf\x14\xaeG\xe1ztE@'
p886
tp887
bsI6
g867
(g868
(I0
tp888
g870
tp889
Rp890
(I1
(I3
tp891
g140
I00
S'\xafG\xe1z\x14\xae\x1e\xc0\xbd\xf5(\\\x8f\xc2\x0b\xc0\xd7\xa3p=\nWF@'
p892
tp893
bsI7
g867
(g868
(I0
tp894
g870
tp895
Rp896
(I1
(I3
tp897
g140
I00
S'\x0b\xd7\xa3p=\x8a!\xc0\x1c\x85\xebQ\xb8\x1e\x11\xc0333333G@'
p898
tp899
bsI9
g867
(g868
(I0
tp900
g870
tp901
Rp902
(I1
(I3
tp903
g140
I00
S'\xb9\x1e\x85\xebQ\xb8\x1d\xc0\x04\xd7\xa3p=\n\x01\xc0\x8f\xc2\xf5(\\\x0fH@'
p904
tp905
bsI10
g867
(g868
(I0
tp906
g870
tp907
Rp908
(I1
(I3
tp909
g140
I00
S'ffffff\x1b\xc0\xcc\xa3p=\n\xd7\xf7\xbf\xd7\xa3p=\n\xb7H@'
p910
tp911
bsI11
g867
(g868
(I0
tp912
g870
tp913
Rp914
(I1
(I3
tp915
g140
I00
S'^\x8f\xc2\xf5(\\\x19\xc0.33333\x0f\xc0\x14\xaeG\xe1z\x14H@'
p916
tp917
bsI12
g908
sI13
g867
(g868
(I0
tp918
g870
tp919
Rp920
(I1
(I3
tp921
g140
I00
S' \x85\xebQ\xb8\x1e\x1c\xc0\xe6Q\xb8\x1e\x85\xeb\x01\xc0\xaeG\xe1z\x14\xceH@'
p922
tp923
bsI14
g867
(g868
(I0
tp924
g870
tp925
Rp926
(I1
(I3
tp927
g140
I00
S')\\\x8f\xc2\xf5(\x19\xc0\xe0\xa3p=\n\xd7\xf3?\xb8\x1e\x85\xebQ\xf8F@'
p928
tp929
bsI15
g920
sI16
g867
(g868
(I0
tp930
g870
tp931
Rp932
(I1
(I3
tp933
g140
I00
S'\xa6p=\n\xd7\xa3\x1b\xc0$\\\x8f\xc2\xf5(\x0e\xc0fffff\xc6I@'
p934
tp935
bsI17
g867
(g868
(I0
tp936
g870
tp937
Rp938
(I1
(I3
tp939
g140
I00
S'\xa4\xebQ\xb8\x1e\x85\xdb\xbf\x1f\x85\xebQ\xb8\x1e\x14\xc0\xc3\xf5(\\\x8f\xe2H@'
p940
tp941
bsI18
g932
sI19
g867
(g868
(I0
tp942
g870
tp943
Rp944
(I1
(I3
tp945
g140
I00
S']\x8f\xc2\xf5(\\\x18\xc0\x8a\xc2\xf5(\\\x8f\x0c\xc0\xe1z\x14\xaeG\xe1K@'
p946
tp947
bsI20
g867
(g868
(I0
tp948
g870
tp949
Rp950
(I1
(I3
tp951
g140
I00
S'\xb0p=\n\xd7\xa3\xe8?)\\\x8f\xc2\xf5(\x0e@\xecQ\xb8\x1e\x85\x8bK@'
p952
tp953
bsI21
g944
sI22
g867
(g868
(I0
tp954
g870
tp955
Rp956
(I1
(I3
tp957
g140
I00
S's=\n\xd7\xa3p\x12\xc0\xd5\xa3p=\n\xd7\x10\xc0\xcd\xcc\xcc\xcc\xcc\xccM@'
p958
tp959
bsI23
g867
(g868
(I0
tp960
g870
tp961
Rp962
(I1
(I3
tp963
g140
I00
S'\x98\x99\x99\x99\x99\x99\x0b@\xa7p=\n\xd7\xa3\x02\xc0R\xb8\x1e\x85\xeb\x11N@'
p964
tp965
bsI24
g956
sI25
g867
(g868
(I0
tp966
g870
tp967
Rp968
(I1
(I3
tp969
g140
I00
S'\xd8\xa3p=\n\xd7\x01\xc0\xca\xcc\xcc\xcc\xcc\xcc\xf4\xbf\xce\xcc\xcc\xcc\xcc\xecO@'
p970
tp971
bsI26
g867
(g868
(I0
tp972
g870
tp973
Rp974
(I1
(I3
tp975
g140
I00
S'\xd2\xcc\xcc\xcc\xcc\xcc\xf8\xbfp=\n\xd7\xa3p\t\xc0\n\xd7\xa3p=\xdaP@'
p976
tp977
bsI27
g867
(g868
(I0
tp978
g870
tp979
Rp980
(I1
(I3
tp981
g140
I00
S'\x11\xaeG\xe1z\x14\x13@?\n\xd7\xa3p=\x19\xc0q=\n\xd7\xa3\x10Q@'
p982
tp983
bsI28
g974
sI29
g867
(g868
(I0
tp984
g870
tp985
Rp986
(I1
(I3
tp987
g140
I00
S'\x98\xc2\xf5(\\\x8f\xea\xbfH\xe1z\x14\xaeG\x07\xc0\\\x8f\xc2\xf5(\xacQ@'
p988
tp989
bsI30
g867
(g868
(I0
tp990
g870
tp991
Rp992
(I1
(I3
tp993
g140
I00
S'=\n\xd7\xa3p=\x14@!\\\x8f\xc2\xf5(\xf8?q=\n\xd7\xa3PQ@'
p994
tp995
bsI31
g986
sI32
g867
(g868
(I0
tp996
g870
tp997
Rp998
(I1
(I3
tp999
g140
I00
S'Yfffff\xd6?ffffff\x00\xc0\n\xd7\xa3p=jR@'
p1000
tp1001
bsI33
g867
(g868
(I0
tp1002
g870
tp1003
Rp1004
(I1
(I3
tp1005
g140
I00
S'cfffff\x12@ \x85\xebQ\xb8\x1e \xc0\xe1z\x14\xaeG!S@'
p1006
tp1007
bsI34
g998
sI35
g867
(g868
(I0
tp1008
g870
tp1009
Rp1010
(I1
(I3
tp1011
g140
I00
S'\xd5\xa3p=\n\xd7\x01@hfffff\x00\xc0\xd7\xa3p=\n\xc7S@'
p1012
tp1013
bsI36
g867
(g868
(I0
tp1014
g870
tp1015
Rp1016
(I1
(I3
tp1017
g140
I00
S'fffff\xe6!@\xdeQ\xb8\x1e\x85\xeb\xf9?fffff\x96S@'
p1018
tp1019
bsI37
g1010
sI38
g867
(g868
(I0
tp1020
g870
tp1021
Rp1022
(I1
(I3
tp1023
g140
I00
S'Z\x8f\xc2\xf5(\\\r@\xe4z\x14\xaeG\xe1\x06\xc0\x9a\x99\x99\x99\x99yT@'
p1024
tp1025
bsI39
g867
(g868
(I0
tp1026
g870
tp1027
Rp1028
(I1
(I3
tp1029
g140
I00
S'\x12\xaeG\xe1z\x94$@-\\\x8f\xc2\xf5(\x1e\xc033333\x93T@'
p1030
tp1031
bsI40
g1022
sI41
g867
(g868
(I0
tp1032
g870
tp1033
Rp1034
(I1
(I3
tp1035
g140
I00
S'\xadG\xe1z\x14\xae\x15@\x0e\xd7\xa3p=\n\x05\xc033333\xc3U@'
p1036
tp1037
bsI42
g867
(g868
(I0
tp1038
g870
tp1039
Rp1040
(I1
(I3
tp1041
g140
I00
S'\x8f\xc2\xf5(\\\x8f&@|\xebQ\xb8\x1e\x85\x01@=\n\xd7\xa3p-V@'
p1042
tp1043
bsI43
g1034
sI44
g867
(g868
(I0
tp1044
g870
tp1045
Rp1046
(I1
(I3
tp1047
g140
I00
S'o=\n\xd7\xa3p\x1d@b\x8f\xc2\xf5(\\\r\xc0fffff\x06W@'
p1048
tp1049
bsI45
g867
(g868
(I0
tp1050
g870
tp1051
Rp1052
(I1
(I3
tp1053
g140
I00
S'\xc1\xf5(\\\x8f\xc2.@"\x85\xebQ\xb8\x1e \xc0=\n\xd7\xa3p\x8dW@'
p1054
tp1055
bsI46
g1046
sI47
g867
(g868
(I0
tp1056
g870
tp1057
Rp1058
(I1
(I3
tp1059
g140
I00
S'\xb7\x1e\x85\xebQ8"@\x92\xc2\xf5(\\\x8f\x10\xc0\xf6(\\\x8f\xc2\x95X@'
p1060
tp1061
bsI48
g867
(g868
(I0
tp1062
g870
tp1063
Rp1064
(I1
(I3
tp1065
g140
I00
S'\xcd\xcc\xcc\xcc\xccL/@l\xebQ\xb8\x1e\x85\xfb?q=\n\xd7\xa3`Y@'
p1066
tp1067
bsI49
g1058
sI50
g867
(g868
(I0
tp1068
g870
tp1069
Rp1070
(I1
(I3
tp1071
g140
I00
S'\xf5(\\\x8f\xc2\xf5$@#\x85\xebQ\xb8\x1e\x12\xc033333\xf3Y@'
p1072
tp1073
bsI51
g867
(g868
(I0
tp1074
g870
tp1075
Rp1076
(I1
(I3
tp1077
g140
I00
S"Y\x8f\xc2\xf5(\xdc'@+\\\x8f\xc2\xf5()\xc0\xb8\x1e\x85\xebQ\xd8Z@"
p1078
tp1079
bsI52
g1070
sI53
g867
(g868
(I0
tp1080
g870
tp1081
Rp1082
(I1
(I3
tp1083
g140
I00
S"effff\xe6'@\x05\x00\x00\x00\x00\x00\x17\xc0q=\n\xd7\xa30\\@"
p1084
tp1085
bsI54
g867
(g868
(I0
tp1086
g870
tp1087
Rp1088
(I1
(I3
tp1089
g140
I00
S'3333331@h33333\xe3\xbf\x14\xaeG\xe1z\x04]@'
p1090
tp1091
bsI55
g1082
sI56
g867
(g868
(I0
tp1092
g870
tp1093
Rp1094
(I1
(I3
tp1095
g140
I00
S'\xeaQ\xb8\x1e\x85\xeb+@\xefQ\xb8\x1e\x85k \xc0\xc3\xf5(\\\x8f\x82^@'
p1096
tp1097
bsI57
g867
(g868
(I0
tp1098
g870
tp1099
Rp1100
(I1
(I3
tp1101
g140
I00
S'\x99\x99\x99\x99\x99\x193@K\xe1z\x14\xae\xc7*\xc0\x1f\x85\xebQ\xb8N_@'
p1102
tp1103
bsI58
g1094
sI59
g867
(g868
(I0
tp1104
g870
tp1105
Rp1106
(I1
(I3
tp1107
g140
I00
S'\xb7\x1e\x85\xebQx0@\xd0\xcc\xcc\xcc\xccL \xc0\\\x8f\xc2\xf5(4`@'
p1108
tp1109
bsI60
g867
(g868
(I0
tp1110
g870
tp1111
Rp1112
(I1
(I3
tp1113
g140
I00
S'\x9a\x99\x99\x99\x99\xd94@\x0cR\xb8\x1e\x85\xeb\xfd\xbfR\xb8\x1e\x85\xeb\xc1`@'
p1114
tp1115
bsI61
g1106
sI62
g867
(g868
(I0
tp1116
g870
tp1117
Rp1118
(I1
(I3
tp1119
g140
I00
S'\x00\x00\x00\x00\x00\x804@E\n\xd7\xa3p=\x1a\xc0\xaeG\xe1z\x14Fa@'
p1120
tp1121
bsI63
g867
(g868
(I0
tp1122
g870
tp1123
Rp1124
(I1
(I3
tp1125
g140
I00
S"\xa3p=\n\xd7c8@\xf1Q\xb8\x1e\x85\xeb'\xc0\x9a\x99\x99\x99\x99\xf9a@"
p1126
tp1127
bsI64
g1118
sI65
g867
(g868
(I0
tp1128
g870
tp1129
Rp1130
(I1
(I3
tp1131
g140
I00
S'q=\n\xd7\xa3\xb06@\x96\xebQ\xb8\x1e\x85\x0f\xc0\x1f\x85\xebQ\xb8\x1eb@'
p1132
tp1133
bsI66
g867
(g868
(I0
tp1134
g870
tp1135
Rp1136
(I1
(I3
tp1137
g140
I00
S'\x85\xebQ\xb8\x1e\x85>@\x00\x13\xaeG\xe1z\xc4?)\\\x8f\xc2\xf5`b@'
p1138
tp1139
bsI67
g1130
sI68
g867
(g868
(I0
tp1140
g870
tp1141
Rp1142
(I1
(I3
tp1143
g140
I00
S'q=\n\xd7\xa3p9@\xebz\x14\xaeG\xe1\x14\xc0\x00\x00\x00\x00\x00\x10c@'
p1144
tp1145
bsI69
g867
(g868
(I0
tp1146
g870
tp1147
Rp1148
(I1
(I3
tp1149
g140
I00
S'\xd6\xa3p=\n\x17;@\xb3G\xe1z\x14.#\xc0\x00\x00\x00\x00\x00\xd8c@'
p1150
tp1151
bsI70
g1142
sI71
g867
(g868
(I0
tp1152
g870
tp1153
Rp1154
(I1
(I3
tp1155
g140
I00
S'\x14\xaeG\xe1z\x94<@h\xb8\x1e\x85\xebQ\x04\xc0\xb8\x1e\x85\xebQ\x18d@'
p1156
tp1157
bsI72
g867
(g868
(I0
tp1158
g870
tp1159
Rp1160
(I1
(I3
tp1161
g140
I00
S'{\x14\xaeG\xe1\xbaB@\x0e\xe1z\x14\xaeG\xf1?\xd7\xa3p=\n7d@'
p1162
tp1163
bsI73
g1154
sI74
g867
(g868
(I0
tp1164
g870
tp1165
Rp1166
(I1
(I3
tp1167
g140
I00
S'q=\n\xd7\xa30?@\xd0\xff\xff\xff\xff\xff\xff?\x00\x00\x00\x00\x00\xc0d@'
p1168
tp1169
bsI75
g867
(g868
(I0
tp1170
g870
tp1171
Rp1172
(I1
(I3
tp1173
g140
I00
S'H\xe1z\x14\xae\x87=@\x9b\xb7\x1e\x85\xebQ\xd8?q=\n\xd7\xa3Pe@'
p1174
tp1175
bsI76
g1166
sI77
g867
(g868
(I0
tp1176
g870
tp1177
Rp1178
(I1
(I3
tp1179
g140
I00
S'33333\xd3A@\x1b\\\x8f\xc2\xf5(\x14@\xaeG\xe1z\x14fe@'
p1180
tp1181
bsI78
g867
(g868
(I0
tp1182
g870
tp1183
Rp1184
(I1
(I3
tp1185
g140
I00
S'\n\xd7\xa3p=\xcaA@k=\n\xd7\xa3\xf0$@fffff\xa6e@'
p1186
tp1187
bsI79
g902
sI81
g867
(g868
(I0
tp1188
g870
tp1189
Rp1190
(I1
(I3
tp1191
g140
I00
S'\n\xd7\xa3p=\x8a"\xc0\xe8(\\\x8f\xc2\xf5\xf4\xbf\n\xd7\xa3p=\xeaH@'
p1192
tp1193
bsI82
g867
(g868
(I0
tp1194
g870
tp1195
Rp1196
(I1
(I3
tp1197
g140
I00
S'\xc3\xf5(\\\x8fB$\xc0\x02\xd7\xa3p=\n\x03\xc0\x1f\x85\xebQ\xb8\xdeH@'
p1198
tp1199
bsI83
g867
(g868
(I0
tp1200
g870
tp1201
Rp1202
(I1
(I3
tp1203
g140
I00
S'33333\xb3#\xc0\xc3\xff\xff\xff\xff\xff\xdf\xbf\xc3\xf5(\\\x8f\x02I@'
p1204
tp1205
bsI84
g867
(g868
(I0
tp1206
g870
tp1207
Rp1208
(I1
(I3
tp1209
g140
I00
S"q=\n\xd7\xa3p'\xc04\n\xd7\xa3p=\x0e\xc0\xaeG\xe1z\x14.G@"
p1210
tp1211
bsI85
g1202
sI86
g867
(g868
(I0
tp1212
g870
tp1213
Rp1214
(I1
(I3
tp1215
g140
I00
S'\n\xd7\xa3p=\x8a&\xc0\x1033333\xeb\xbf\x85\xebQ\xb8\x1e\xa5J@'
p1216
tp1217
bsI87
g867
(g868
(I0
tp1218
g870
tp1219
Rp1220
(I1
(I3
tp1221
g140
I00
S"\xc4\xf5(\\\x8f\xc2'\xc0\x05\xd7\xa3p=\n\x15\xc0\x85\xebQ\xb8\x1e\x85J@"
p1222
tp1223
bsI88
g1214
sI89
g867
(g868
(I0
tp1224
g870
tp1225
Rp1226
(I1
(I3
tp1227
g140
I00
S'\xecQ\xb8\x1e\x85\xeb(\xc0\xd6\xf5(\\\x8f\xc2\xf9?\x85\xebQ\xb8\x1e\xc5K@'
p1228
tp1229
bsI90
g867
(g868
(I0
tp1230
g870
tp1231
Rp1232
(I1
(I3
tp1233
g140
I00
S'\n\xd7\xa3p=\n2\xc0\x11\xd7\xa3p=\n\x14@\xc3\xf5(\\\x8f\x82J@'
p1234
tp1235
bsI91
g1226
sI92
g867
(g868
(I0
tp1236
g870
tp1237
Rp1238
(I1
(I3
tp1239
g140
I00
S'{\x14\xaeG\xe1z,\xc0g\x8f\xc2\xf5(\\\x03@fffff&M@'
p1240
tp1241
bsI93
g867
(g868
(I0
tp1242
g870
tp1243
Rp1244
(I1
(I3
tp1245
g140
I00
S'\x1f\x85\xebQ\xb8\x1e2\xc0\xfdz\x14\xaeG\xe1\xfe?R\xb8\x1e\x85\xebqO@'
p1246
tp1247
bsI94
g1238
sI95
g867
(g868
(I0
tp1248
g870
tp1249
Rp1250
(I1
(I3
tp1251
g140
I00
S'=\n\xd7\xa3p\xfd0\xc0\x06\x00\x00\x00\x00\x00\x15@\x1f\x85\xebQ\xb8\xfeN@'
p1252
tp1253
bsI96
g867
(g868
(I0
tp1254
g870
tp1255
Rp1256
(I1
(I3
tp1257
g140
I00
S'\xd6\xa3p=\n\x177\xc083333\xb3!@\n\xd7\xa3p=\x8aL@'
p1258
tp1259
bsI97
g1250
sI98
g867
(g868
(I0
tp1260
g870
tp1261
Rp1262
(I1
(I3
tp1263
g140
I00
S'effff&1\xc0\xda\xa3p=\n\xd7#@R\xb8\x1e\x85\xebqP@'
p1264
tp1265
bsI99
g867
(g868
(I0
tp1266
g870
tp1267
Rp1268
(I1
(I3
tp1269
g140
I00
S'\xcd\xcc\xcc\xcc\xcc\x0c5\xc0\xe9z\x14\xaeG\xe1\x10@33333CR@'
p1270
tp1271
bsI100
g1262
sI101
g867
(g868
(I0
tp1272
g870
tp1273
Rp1274
(I1
(I3
tp1275
g140
I00
S'\x8e\xc2\xf5(\\\x0f5\xc0\x89\xebQ\xb8\x1e\x85(@\x14\xaeG\xe1zTQ@'
p1276
tp1277
bsI102
g867
(g868
(I0
tp1278
g870
tp1279
Rp1280
(I1
(I3
tp1281
g140
I00
S'\x98\x99\x99\x99\x99\xd98\xc0\x03\x00\x00\x00\x00@1@\xcd\xcc\xcc\xcc\xcc\xfcP@'
p1282
tp1283
bsI103
g1274
sI104
g867
(g868
(I0
tp1284
g870
tp1285
Rp1286
(I1
(I3
tp1287
g140
I00
S'\xf5(\\\x8f\xc258\xc0\x05\x00\x00\x00\x00\x80%@\xe1z\x14\xaeG\x91R@'
p1288
tp1289
bsI105
g867
(g868
(I0
tp1290
g870
tp1291
Rp1292
(I1
(I3
tp1293
g140
I00
S'\\\x8f\xc2\xf5(\x9c>\xc0I\n\xd7\xa3p=\x1f@\\\x8f\xc2\xf5(\xdcR@'
p1294
tp1295
bsI106
g1286
sI107
g867
(g868
(I0
tp1296
g870
tp1297
Rp1298
(I1
(I3
tp1299
g140
I00
S'\xa3p=\n\xd7\xa3:\xc0\xa9p=\n\xd7#)@\xd7\xa3p=\n\x07T@'
p1300
tp1301
bsI108
g867
(g868
(I0
tp1302
g870
tp1303
Rp1304
(I1
(I3
tp1305
g140
I00
S'\xfe\xff\xff\xff\xff?:\xc0~\x14\xaeG\xe1\xfa2@\x14\xaeG\xe1z\xf4T@'
p1306
tp1307
bsI109
g1298
sI110
g867
(g868
(I0
tp1308
g870
tp1309
Rp1310
(I1
(I3
tp1311
g140
I00
S'\x99\x99\x99\x99\x99\x99=\xc0\xfc(\\\x8f\xc2u%@\x85\xebQ\xb8\x1eeU@'
p1312
tp1313
bsI111
g867
(g868
(I0
tp1314
g870
tp1315
Rp1316
(I1
(I3
tp1317
g140
I00
S'\xcd\xcc\xcc\xcc\xcc\xecA\xc0\x9d\xc2\xf5(\\\x8f\x1f@\xc3\xf5(\\\x8frV@'
p1318
tp1319
bsI112
g1310
sI113
g867
(g868
(I0
tp1320
g870
tp1321
Rp1322
(I1
(I3
tp1323
g140
I00
S'\xff\xff\xff\xff\xff\xbf?\xc0w=\n\xd7\xa3\xf0+@\n\xd7\xa3p=\xbaW@'
p1324
tp1325
bsI114
g867
(g868
(I0
tp1326
g870
tp1327
Rp1328
(I1
(I3
tp1329
g140
I00
S'\xcc\xcc\xcc\xcc\xcc\x0cA\xc0\xe4z\x14\xaeG\xe13@R\xb8\x1e\x85\xeb1X@'
p1330
tp1331
bsI115
g1322
sI116
g867
(g868
(I0
tp1332
g870
tp1333
Rp1334
(I1
(I3
tp1335
g140
I00
S'33333sA\xc0\xfc(\\\x8f\xc2\xf5*@=\n\xd7\xa3pMY@'
p1336
tp1337
bsI117
g867
(g868
(I0
tp1338
g870
tp1339
Rp1340
(I1
(I3
tp1341
g140
I00
S"\x8f\xc2\xf5(\\\xafC\xc0Z\xb8\x1e\x85\xeb\xd1'@)\\\x8f\xc2\xf5xZ@"
p1342
tp1343
bsI118
g1334
sI119
g867
(g868
(I0
tp1344
g870
tp1345
Rp1346
(I1
(I3
tp1347
g140
I00
S'\x1e\x85\xebQ\xb8\x1eB\xc0\x92\xc2\xf5(\\\xcf0@\xb8\x1e\x85\xebQ\x88Z@'
p1348
tp1349
bsI120
g867
(g868
(I0
tp1350
g870
tp1351
Rp1352
(I1
(I3
tp1353
g140
I00
S'\xff\xff\xff\xff\xff\x1fA\xc0,\\\x8f\xc2\xf5h7@\n\xd7\xa3p=:[@'
p1354
tp1355
bsI121
g1346
sI122
g867
(g868
(I0
tp1356
g870
tp1357
Rp1358
(I1
(I3
tp1359
g140
I00
S'Q\xb8\x1e\x85\xebQB\xc0\xe4z\x14\xaeGa7@33333\x13\\@'
p1360
tp1361
bsI123
g867
(g868
(I0
tp1362
g870
tp1363
Rp1364
(I1
(I3
tp1365
g140
I00
S'efffffE\xc0\x93\xc2\xf5(\\\x0f9@\x14\xaeG\xe1z\xa4\\@'
p1366
tp1367
bsI124
g1358
sI125
g867
(g868
(I0
tp1368
g870
tp1369
Rp1370
(I1
(I3
tp1371
g140
I00
S'\xff\xff\xff\xff\xff\xffB\xc0iffff&8@\\\x8f\xc2\xf5(\x8c]@'
p1372
tp1373
bsI126
g867
(g868
(I0
tp1374
g870
tp1375
Rp1376
(I1
(I3
tp1377
g140
I00
S'p=\n\xd7\xa3\xd0A\xc0"\x85\xebQ\xb8\x9e:@\xa4p=\n\xd7\x83^@'
p1378
tp1379
bsI127
g1370
sI128
g867
(g868
(I0
tp1380
g870
tp1381
Rp1382
(I1
(I3
tp1383
g140
I00
S'\x13\xaeG\xe1z\x94D\xc0`\x8f\xc2\xf5(\\6@\xecQ\xb8\x1e\x85\x0b_@'
p1384
tp1385
bsI129
g867
(g868
(I0
tp1386
g870
tp1387
Rp1388
(I1
(I3
tp1389
g140
I00
S'\xe0z\x14\xaeG!G\xc0\x0f\xd7\xa3p=J1@\xa4p=\n\xd7\x03`@'
p1390
tp1391
bsI130
g1382
sI131
g867
(g868
(I0
tp1392
g870
tp1393
Rp1394
(I1
(I3
tp1395
g140
I00
S'\xebQ\xb8\x1e\x85\xabE\xc0-\\\x8f\xc2\xf5\xe88@\x85\xebQ\xb8\x1e\x15`@'
p1396
tp1397
bsI132
g867
(g868
(I0
tp1398
g870
tp1399
Rp1400
(I1
(I3
tp1401
g140
I00
S'dffffFF\xc0\xa9p=\n\xd7c>@\x00\x00\x00\x00\x00\x80`@'
p1402
tp1403
bsI133
g1394
sI134
g867
(g868
(I0
tp1404
g870
tp1405
Rp1406
(I1
(I3
tp1407
g140
I00
S'\xebQ\xb8\x1e\x85kG\xc0\xb3G\xe1z\x14\xae9@)\\\x8f\xc2\xf5\xd8`@'
p1408
tp1409
bsI135
g867
(g868
(I0
tp1410
g870
tp1411
Rp1412
(I1
(I3
tp1413
g140
I00
S'\x99\x99\x99\x99\x999G\xc0\x19\xaeG\xe1z\x145@\xd7\xa3p=\n\xbfa@'
p1414
tp1415
bsI136
g1406
sI137
g867
(g868
(I0
tp1416
g870
tp1417
Rp1418
(I1
(I3
tp1419
g140
I00
S'efffffI\xc0B\n\xd7\xa3p=7@fffffna@'
p1420
tp1421
bsI138
g867
(g868
(I0
tp1422
g870
tp1423
Rp1424
(I1
(I3
tp1425
g140
I00
S"\t\xd7\xa3p=\xaaH\xc0\x9f\x99\x99\x99\x99Y:@\xd7\xa3p=\n'b@"
p1426
tp1427
bsI139
g1418
sI140
g867
(g868
(I0
tp1428
g870
tp1429
Rp1430
(I1
(I3
tp1431
g140
I00
S'\x13\xaeG\xe1z\xf4J\xc0\x9f\x99\x99\x99\x99\xd9;@\xc3\xf5(\\\x8f2b@'
p1432
tp1433
bsI141
g867
(g868
(I0
tp1434
g870
tp1435
Rp1436
(I1
(I3
tp1437
g140
I00
S'\xcb\xcc\xcc\xcc\xcc\xacM\xc0\r\xd7\xa3p=j@@{\x14\xaeG\xe1bb@'
p1438
tp1439
bsI142
g1430
sI143
g867
(g868
(I0
tp1440
g870
tp1441
Rp1442
(I1
(I3
tp1443
g140
I00
S"'\\\x8f\xc2\xf5\xc8K\xc0\x9d\x99\x99\x99\x999A@\xe1z\x14\xaeG\xf9b@"
p1444
tp1445
bsI144
g867
(g868
(I0
tp1446
g870
tp1447
Rp1448
(I1
(I3
tp1449
g140
I00
S'\x1d\x85\xebQ\xb8\xfeI\xc0K\xe1z\x14\xaeG@@\xcd\xcc\xcc\xcc\xcc\xecc@'
p1450
tp1451
bsI145
g1442
sI146
g867
(g868
(I0
tp1452
g870
tp1453
Rp1454
(I1
(I3
tp1455
g140
I00
S'\xd5\xa3p=\nWN\xc0\xf2Q\xb8\x1e\x85+=@=\n\xd7\xa3p\x9dc@'
p1456
tp1457
bsI147
g867
(g868
(I0
tp1458
g870
tp1459
Rp1460
(I1
(I3
tp1461
g140
I00
S'\xa4p=\n\xd7\xa3P\xc0\x95\xc2\xf5(\\\x8f;@\xe1z\x14\xaeG\td@'
p1462
tp1463
bsI148
g1454
sI149
g867
(g868
(I0
tp1464
g870
tp1465
Rp1466
(I1
(I3
tp1467
g140
I00
S'o=\n\xd7\xa3PO\xc063333\xd3A@)\\\x8f\xc2\xf58d@'
p1468
tp1469
bsI150
g867
(g868
(I0
tp1470
g870
tp1471
Rp1472
(I1
(I3
tp1473
g140
I00
S'\xdfz\x14\xaeG\x81L\xc0U\xb8\x1e\x85\xeb\xb1E@\xcd\xcc\xcc\xcc\xcc\xd4d@'
p1474
tp1475
bsI151
(lp1476
I0
aI0
aI0
asI152
(lp1477
I0
aI0
aI0
asI153
(lp1478
I0
aI0
aI0
assS'Eabs'
p1479
(dp1480
I129
F1605.1921077498896
sI132
F506.62329568944136
sI135
F1545.096389040044
sI138
F753.5365419075298
sI11
F663.0346221703737
sI141
F864.4303059411509
sI14
F1755.3963464257938
sI144
F725.3162877703626
sI17
F773.2420744094316
sI147
F1385.017016540245
sI20
F1480.2331591944605
sI150
F986.7609950923369
sI23
F933.8952907010471
sI27
F974.3872426900915
sI156
F219.015
sI30
F667.5714778609342
sI33
F1198.1876428160726
sI36
F766.9674409493167
sI39
F803.8010333793546
sI42
F1112.657813191232
sI45
F654.0800842488138
sI48
F916.1757985544701
sI51
F1218.4029390706833
sI54
F909.3340531885601
sI57
F992.5938109806859
sI60
F850.034853998358
sI63
F1007.7137576032167
sI66
F628.2097963707222
sI69
F1327.760657596338
sI72
F826.9395343155786
sI75
F1064.1299191499972
sI78
F1297.5630066035976
sI84
F854.512092820244
sI87
F1169.796672172997
sI90
F830.4620124088857
sI93
F1064.4394264250752
sI96
F978.6996983540906
sI99
F1478.1009233649659
sI102
F680.7186310101957
sI105
F1099.6066375468756
sI108
F957.6933652757934
sI111
F1112.3308327401191
sI114
F923.9281618402763
sI117
F967.9503167034214
sI120
F807.083400940083
sI123
F701.9888638792114
sI126
F668.0791410595047
ssS'edge_type'
p1481
(dp1482
I1
S'/'
p1483
sI4
S'<'
p1484
sI5
S'+'
p1485
sI6
g1485
sI7
g1485
sI8
g1485
sI9
g1485
sI10
g1485
sI11
g1485
sI12
g1484
sI13
g1485
sI14
g1485
sI15
g1484
sI16
g1485
sI17
g1485
sI18
g1484
sI19
g1485
sI20
g1485
sI21
g1484
sI22
g1485
sI23
g1485
sI24
g1484
sI25
g1484
sI26
g1485
sI27
g1485
sI28
g1484
sI29
g1485
sI30
g1485
sI31
g1484
sI32
g1485
sI33
g1485
sI34
g1484
sI35
g1485
sI36
g1485
sI37
g1484
sI38
g1485
sI39
g1485
sI40
g1484
sI41
g1485
sI42
g1485
sI43
g1484
sI44
g1485
sI45
g1485
sI46
g1484
sI47
g1485
sI48
g1485
sI49
g1484
sI50
g1485
sI51
g1485
sI52
g1484
sI53
g1485
sI54
g1485
sI55
g1484
sI56
g1485
sI57
g1485
sI58
g1484
sI59
g1485
sI60
g1485
sI61
g1484
sI62
g1485
sI63
g1485
sI64
g1484
sI65
g1485
sI66
g1485
sI67
g1484
sI68
g1485
sI69
g1485
sI70
g1484
sI71
g1485
sI72
g1485
sI73
g1484
sI74
g1485
sI75
g1485
sI76
g1484
sI77
g1485
sI78
g1485
sI79
g1484
sI80
g1485
sI81
g1485
sI82
g1484
sI83
g1485
sI84
g1485
sI85
g1484
sI86
g1485
sI87
g1485
sI88
g1484
sI89
g1485
sI90
g1485
sI91
g1484
sI92
g1485
sI93
g1485
sI94
g1484
sI95
g1485
sI96
g1485
sI97
g1484
sI98
g1485
sI99
g1485
sI100
g1484
sI101
g1485
sI102
g1485
sI103
g1484
sI104
g1485
sI105
g1485
sI106
g1484
sI107
g1485
sI108
g1485
sI109
g1484
sI110
g1485
sI111
g1485
sI112
g1484
sI113
g1485
sI114
g1485
sI115
g1484
sI116
g1485
sI117
g1485
sI118
g1484
sI119
g1485
sI120
g1485
sI121
g1484
sI122
g1485
sI123
g1485
sI124
g1484
sI125
g1485
sI126
g1485
sI127
g1484
sI128
g1485
sI129
g1485
sI130
g1484
sI131
g1485
sI132
g1485
sI133
g1484
sI134
g1485
sI135
g1485
sI136
g1484
sI137
g1485
sI138
g1485
sI139
g1484
sI140
g1485
sI141
g1485
sI142
g1484
sI143
g1485
sI144
g1485
sI145
g1484
sI146
g1485
sI147
g1485
sI148
g1484
sI149
g1485
sI150
g1485
sI154
g1483
sI155
g1483
ssS'InitDiam'
p1486
(dp1487
I8
F1.0087387468850806
sI80
F0.6165174988060347
ssS'KL'
p1488
(dp1489
I3
g136
(g140
S'\x83\x80\xd1Y\xf1\xaat?'
p1490
tp1491
Rp1492
sI4
g136
(g140
S'~\xf9\x04A"\xa3t?'
p1493
tp1494
Rp1495
sI5
g136
(g140
S'\x80H\x86m\xe1\x9dt?'
p1496
tp1497
Rp1498
sI6
g136
(g140
S'd>Zt\x91\x9bt?'
p1499
tp1500
Rp1501
sI7
g136
(g140
S'mmI\xbdN\x99t?'
p1502
tp1503
Rp1504
sI9
g136
(g140
S'?l\xf7c\x84\x97t?'
p1505
tp1506
Rp1507
sI10
g136
(g140
S'-\x04\xe2\xe1J\x97t?'
p1508
tp1509
Rp1510
sI12
g136
(g140
S'\t;\xe5e\xd1\x96t?'
p1511
tp1512
Rp1513
sI13
g136
(g140
S'\x1a\x00\x17\x9c\x95\x97t?'
p1514
tp1515
Rp1516
sI15
g136
(g140
S'\xa4\x7f\xd4\x17\xd8\x95t?'
p1517
tp1518
Rp1519
sI16
g136
(g140
S'\x98\x02?\xd5s\x95t?'
p1520
tp1521
Rp1522
sI18
g136
(g140
S'\x13\xb7\x01\xd5e\x93t?'
p1523
tp1524
Rp1525
sI19
g136
(g140
S'\x84".x\xe4\x91t?'
p1526
tp1527
Rp1528
sI21
g136
(g140
S'\xd3\x86J\xaeG\x90t?'
p1529
tp1530
Rp1531
sI22
g136
(g140
S'\xc3\xa0\xacW\xa1\x8et?'
p1532
tp1533
Rp1534
sI24
g136
(g140
S'\n>\xc9\xb8\x04\x8dt?'
p1535
tp1536
Rp1537
sI25
g136
(g140
S'H\xa4\xc5\xb7\xd9\x89t?'
p1538
tp1539
Rp1540
sI26
g136
(g140
S'{\xf3\xd9Z3\x88t?'
p1541
tp1542
Rp1543
sI28
g136
(g140
S'\xfcJ)\x8f:\x87t?'
p1544
tp1545
Rp1546
sI29
g136
(g140
S'!\x83\x1c\x82V\x86t?'
p1547
tp1548
Rp1549
sI31
g136
(g140
S'@\xb0\x1f\xad\xe1\x84t?'
p1550
tp1551
Rp1552
sI32
g136
(g140
S'\xac\x19\x18\x1e\xff\x82t?'
p1553
tp1554
Rp1555
sI34
g136
(g140
S'\x92[\x0e_\xc2\x81t?'
p1556
tp1557
Rp1558
sI35
g136
(g140
S"7\x1f'X\xea\x7ft?"
p1559
tp1560
Rp1561
sI37
g136
(g140
S'W\xabF{\xb9~t?'
p1562
tp1563
Rp1564
sI38
g136
(g140
S'\xd8h\xdeQ\x8b}t?'
p1565
tp1566
Rp1567
sI40
g136
(g140
S'\xc3\xd4\xae\xec\xdb{t?'
p1568
tp1569
Rp1570
sI41
g136
(g140
S'Qf8U\x8eyt?'
p1571
tp1572
Rp1573
sI43
g136
(g140
S'\x93C\xadmCxt?'
p1574
tp1575
Rp1576
sI44
g136
(g140
S'/\x92t\xba\xe6ut?'
p1577
tp1578
Rp1579
sI46
g136
(g140
S'\x11\x82T~ctt?'
p1580
tp1581
Rp1582
sI47
g136
(g140
S'w\x18\xae\x00mqt?'
p1583
tp1584
Rp1585
sI49
g136
(g140
S'\xe5\xd2A\xddzpt?'
p1586
tp1587
Rp1588
sI50
g136
(g140
S'\xfc1\x839\xb7mt?'
p1589
tp1590
Rp1591
sI52
g136
(g140
S'\x04"\xdf\xf5\xcdkt?'
p1592
tp1593
Rp1594
sI53
g136
(g140
S'T\x17\t\x8f\x0fht?'
p1595
tp1596
Rp1597
sI55
g136
(g140
S'\xc1\x9f6\x0e\xfeet?'
p1598
tp1599
Rp1600
sI56
g136
(g140
S'7\t\x1e\x114bt?'
p1601
tp1602
Rp1603
sI58
g136
(g140
S'%\xf7\xf9\xe4\xb6`t?'
p1604
tp1605
Rp1606
sI59
g136
(g140
S'K@\xc6 9]t?'
p1607
tp1608
Rp1609
sI61
g136
(g140
S'\xd6}CN\xc3[t?'
p1610
tp1611
Rp1612
sI62
g136
(g140
S'Hz&\xb8\xb2Wt?'
p1613
tp1614
Rp1615
sI64
g136
(g140
S'\xbc\x99\x91\xb7$Wt?'
p1616
tp1617
Rp1618
sI65
g136
(g140
S'\x12\xdf\xf4\xf2\x8cTt?'
p1619
tp1620
Rp1621
sI67
g136
(g140
S'F\x13\x92%\xfbRt?'
p1622
tp1623
Rp1624
sI68
g136
(g140
S'\xe1b\xd9\xe85Ot?'
p1625
tp1626
Rp1627
sI70
g136
(g140
S'\x1c\x8a"|\x8aNt?'
p1628
tp1629
Rp1630
sI71
g136
(g140
S'r\xb4e\xbd\xf1Kt?'
p1631
tp1632
Rp1633
sI73
g136
(g140
S'\xd1\x8a\x1c\x8e\xd3Jt?'
p1634
tp1635
Rp1636
sI74
g136
(g140
S"\xa8\xcb\t'<Ht?"
p1637
tp1638
Rp1639
sI76
g136
(g140
S'\xb8\xfb\x1e\xc8\x0bHt?'
p1640
tp1641
Rp1642
sI77
g136
(g140
S'\x0c\xc9\xde\x8e%Ft?'
p1643
tp1644
Rp1645
sI79
g136
(g140
S';\xf1\xd9\xdeJ\x97t?'
p1646
tp1647
Rp1648
sI81
g136
(g140
S'^\xcd&=^\x96t?'
p1649
tp1650
Rp1651
sI82
g136
(g140
S'\xe4YX>\xe6\x95t?'
p1652
tp1653
Rp1654
sI83
g136
(g140
S'\x1b63\x0c\x82\x96t?'
p1655
tp1656
Rp1657
sI85
g136
(g140
S'\n\xff\n\x02M\x94t?'
p1658
tp1659
Rp1660
sI86
g136
(g140
S'\x8d\x05\x91*\x12\x93t?'
p1661
tp1662
Rp1663
sI88
g136
(g140
S'\x04\xc72\xc4\x01\x92t?'
p1664
tp1665
Rp1666
sI89
g136
(g140
S'\xa8\xf7\x13\xac\x9d\x91t?'
p1667
tp1668
Rp1669
sI91
g136
(g140
S'\xea\xc2\xdd\x95\xe2\x8ft?'
p1670
tp1671
Rp1672
sI92
g136
(g140
S'\xdc\xfa\xc4\xa1\x96\x8dt?'
p1673
tp1674
Rp1675
sI94
g136
(g140
S'\x9c`fF4\x8dt?'
p1676
tp1677
Rp1678
sI95
g136
(g140
S'\xef\xb0\x8cm\xd2\x8ct?'
p1679
tp1680
Rp1681
sI97
g136
(g140
S'\x9c\xa0\x96\n\x01\x8at?'
p1682
tp1683
Rp1684
sI98
g136
(g140
S'L\xa7\xe2\xdcv\x86t?'
p1685
tp1686
Rp1687
sI100
g136
(g140
S'W\x8cr\x15\xe1\x86t?'
p1688
tp1689
Rp1690
sI101
g136
(g140
S'\xcc6>\xc9\xb1\x85t?'
p1691
tp1692
Rp1693
sI103
g136
(g140
S'\r\xafI\x08\x8a\x83t?'
p1694
tp1695
Rp1696
sI104
g136
(g140
S"\x15\xd4'u[\x81t?"
p1697
tp1698
Rp1699
sI106
g136
(g140
S'E\xc62\xfa\x9c\x7ft?'
p1700
tp1701
Rp1702
sI107
g136
(g140
S'8\xe6u\xcd\x91|t?'
p1703
tp1704
Rp1705
sI109
g136
(g140
S"'\x86/A\x95{t?"
p1706
tp1707
Rp1708
sI110
g136
(g140
S'\xb8\xda\xb2[\x88xt?'
p1709
tp1710
Rp1711
sI112
g136
(g140
S'\x85JI\x8dsvt?'
p1712
tp1713
Rp1714
sI113
g136
(g140
S'\x1d:\xf4\x94\xc5rt?'
p1715
tp1716
Rp1717
sI115
g136
(g140
S'\x95Kr\xe3#qt?'
p1718
tp1719
Rp1720
sI116
g136
(g140
S'\xf1D\xac\xf4\xcfmt?'
p1721
tp1722
Rp1723
sI118
g136
(g140
S'A\\\xb6\xa9Smt?'
p1724
tp1725
Rp1726
sI119
g136
(g140
S'\xcd\x0e\xa6\xd2\xe7jt?'
p1727
tp1728
Rp1729
sI121
g136
(g140
S'\x81:\xc8\xc7|it?'
p1730
tp1731
Rp1732
sI122
g136
(g140
S'\x08Q6<\xbbft?'
p1733
tp1734
Rp1735
sI124
g136
(g140
S'\xd1\x16G\xf4yet?'
p1736
tp1737
Rp1738
sI125
g136
(g140
S'\xea{\x1fx\xa2bt?'
p1739
tp1740
Rp1741
sI127
g136
(g140
S'\xff.\xa2\t\xb8at?'
p1742
tp1743
Rp1744
sI128
g136
(g140
S'*\xa5` \xc6^t?'
p1745
tp1746
Rp1747
sI130
g136
(g140
S'\xec\xe6\xb0\x1aj^t?'
p1748
tp1749
Rp1750
sI131
g136
(g140
S'\xc1d\xb6\xbe%\\t?'
p1751
tp1752
Rp1753
sI133
g136
(g140
S'\xd7+t\xb7+[t?'
p1754
tp1755
Rp1756
sI134
g136
(g140
S'\x04X\xe7\xf7uWt?'
p1757
tp1758
Rp1759
sI136
g136
(g140
S'\x0ckF\xeb\xeeWt?'
p1760
tp1761
Rp1762
sI137
g136
(g140
S'7\xcf\x85S\x0fUt?'
p1763
tp1764
Rp1765
sI139
g136
(g140
S'\xea\xf7\xfe\xc3\xc9Tt?'
p1766
tp1767
Rp1768
sI140
g136
(g140
S'\x1aX.@\x9dRt?'
p1769
tp1770
Rp1771
sI142
g136
(g140
S'o\xb4\xe5\xf4LQt?'
p1772
tp1773
Rp1774
sI143
g136
(g140
S'\xe1-\xaen\xa2Mt?'
p1775
tp1776
Rp1777
sI145
g136
(g140
S"\xf87~\xb4'Nt?"
p1778
tp1779
Rp1780
sI146
g136
(g140
S'\xfc\xb8\xe4\xd4\xdcKt?'
p1781
tp1782
Rp1783
sI148
g136
(g140
S'\xe6\xee\xf12yKt?'
p1784
tp1785
Rp1786
sI149
g136
(g140
S'\x91\xe8\xde\xba\xe8Ht?'
p1787
tp1788
Rp1789
ssS'label'
p1790
(dp1791
I1
S'plant101'
p1792
sI2
S'trunk'
p1793
sI3
S'inT1'
p1794
sI4
S'inT2'
p1795
sI5
S'cx2.a'
p1796
sI6
S'inT3y1'
p1797
sI7
S'inT2y1'
p1798
sI8
S'shI1'
p1799
sI9
S'inI1'
p1800
sI10
S'Pet1'
p1801
sI11
S'LI1'
p1802
sI12
S'inI2'
p1803
sI13
S'Pet2'
p1804
sI14
S'LI2'
p1805
sI15
S'inI3'
p1806
sI16
S'Pet3'
p1807
sI17
S'LI3'
p1808
sI18
S'inI4'
p1809
sI19
S'Pet4'
p1810
sI20
S'LI4'
p1811
sI21
S'inI5'
p1812
sI22
S'Pet5'
p1813
sI23
S'LI5'
p1814
sI24
S'inI6'
p1815
sI25
S'inI7'
p1816
sI26
S'Pet7'
p1817
sI27
S'LI7'
p1818
sI28
S'inI8'
p1819
sI29
S'Pet8'
p1820
sI30
S'LI8'
p1821
sI31
S'inI9'
p1822
sI32
S'Pet9'
p1823
sI33
S'LI9'
p1824
sI34
S'inI10'
p1825
sI35
S'Pet10'
p1826
sI36
S'LI10'
p1827
sI37
S'inI11'
p1828
sI38
S'Pet11'
p1829
sI39
S'LI11'
p1830
sI40
S'inI12'
p1831
sI41
S'Pet12'
p1832
sI42
S'LI12'
p1833
sI43
S'inI13'
p1834
sI44
S'Pet13'
p1835
sI45
S'LI13'
p1836
sI46
S'inI14'
p1837
sI47
S'Pet14'
p1838
sI48
S'LI14'
p1839
sI49
S'inI15'
p1840
sI50
S'Pet15'
p1841
sI51
S'LI15'
p1842
sI52
S'inI16'
p1843
sI53
S'Pet16'
p1844
sI54
S'LI16'
p1845
sI55
S'inI17'
p1846
sI56
S'Pet17'
p1847
sI57
S'LI17'
p1848
sI58
S'inI18'
p1849
sI59
S'Pet18'
p1850
sI60
S'LI18'
p1851
sI61
S'inI19'
p1852
sI62
S'Pet19'
p1853
sI63
S'LI19'
p1854
sI64
S'inI20'
p1855
sI65
S'Pet20'
p1856
sI66
S'LI20'
p1857
sI67
S'inI21'
p1858
sI68
S'Pet21'
p1859
sI69
S'LI21'
p1860
sI70
S'inI22'
p1861
sI71
S'Pet22'
p1862
sI72
S'LI22'
p1863
sI73
S'inI23'
p1864
sI74
S'Pet23'
p1865
sI75
S'LI23'
p1866
sI76
S'inI24'
p1867
sI77
S'Pet24'
p1868
sI78
S'LI24'
p1869
sI79
S'inT2y2'
p1870
sI80
S'shI2'
p1871
sI81
S'inI1'
p1872
sI82
S'inI2'
p1873
sI83
S'Pet2'
p1874
sI84
S'LI2'
p1875
sI85
S'inI3'
p1876
sI86
S'Pet3'
p1877
sI87
S'LI3'
p1878
sI88
S'inI4'
p1879
sI89
S'Pet4'
p1880
sI90
S'LI4'
p1881
sI91
S'inI5'
p1882
sI92
S'Pet5'
p1883
sI93
S'LI5'
p1884
sI94
S'inI6'
p1885
sI95
S'Pet6'
p1886
sI96
S'LI6'
p1887
sI97
S'inI7'
p1888
sI98
S'Pet7'
p1889
sI99
S'LI7'
p1890
sI100
S'inI8'
p1891
sI101
S'Pet8'
p1892
sI102
S'LI8'
p1893
sI103
S'inI9'
p1894
sI104
S'Pet9'
p1895
sI105
S'LI9'
p1896
sI106
S'inI10'
p1897
sI107
S'Pet10'
p1898
sI108
S'LI10'
p1899
sI109
S'inI11'
p1900
sI110
S'Pet11'
p1901
sI111
S'LI11'
p1902
sI112
S'inI12'
p1903
sI113
S'Pet12'
p1904
sI114
S'LI12'
p1905
sI115
S'inI13'
p1906
sI116
S'Pet13'
p1907
sI117
S'LI13'
p1908
sI118
S'inI14'
p1909
sI119
S'Pet14'
p1910
sI120
S'LI14'
p1911
sI121
S'inI15'
p1912
sI122
S'Pet15'
p1913
sI123
S'LI15'
p1914
sI124
S'inI16'
p1915
sI125
S'Pet16'
p1916
sI126
S'LI16'
p1917
sI127
S'inI17'
p1918
sI128
S'Pet17'
p1919
sI129
S'LI17'
p1920
sI130
S'inI18'
p1921
sI131
S'Pet18'
p1922
sI132
S'LI18'
p1923
sI133
S'inI19'
p1924
sI134
S'Pet19'
p1925
sI135
S'LI19'
p1926
sI136
S'inI20'
p1927
sI137
S'Pet20'
p1928
sI138
S'LI20'
p1929
sI139
S'inI21'
p1930
sI140
S'Pet21'
p1931
sI141
S'LI21'
p1932
sI142
S'inI22'
p1933
sI143
S'Pet22'
p1934
sI144
S'LI22'
p1935
sI145
S'inI23'
p1936
sI146
S'Pet23'
p1937
sI147
S'LI23'
p1938
sI148
S'inI24'
p1939
sI149
S'Pet24'
p1940
sI150
S'LI24'
p1941
sI151
S'rhyzo0'
p1942
sI152
S'rhyzo1'
p1943
sI153
S'rhyzo2'
p1944
sI154
S'Soil0'
p1945
sI155
S'Soil'
p1946
sI156
S'other0'
p1947
ssS'Kmax'
p1948
(dp1949
I3
F0.01
sI4
F0.01
sI5
F0.01
sI6
F0.01
sI7
F0.01
sI9
F0.01
sI10
F0.01
sI12
F0.01
sI13
F0.01
sI15
F0.01
sI16
F0.01
sI18
F0.01
sI19
F0.01
sI21
F0.01
sI22
F0.01
sI24
F0.01
sI25
F0.01
sI26
F0.01
sI28
F0.01
sI29
F0.01
sI31
F0.01
sI32
F0.01
sI34
F0.01
sI35
F0.01
sI37
F0.01
sI38
F0.01
sI40
F0.01
sI41
F0.01
sI43
F0.01
sI44
F0.01
sI46
F0.01
sI47
F0.01
sI49
F0.01
sI50
F0.01
sI52
F0.01
sI53
F0.01
sI55
F0.01
sI56
F0.01
sI58
F0.01
sI59
F0.01
sI61
F0.01
sI62
F0.01
sI64
F0.01
sI65
F0.01
sI67
F0.01
sI68
F0.01
sI70
F0.01
sI71
F0.01
sI73
F0.01
sI74
F0.01
sI76
F0.01
sI77
F0.01
sI79
F0.01
sI81
F0.01
sI82
F0.01
sI83
F0.01
sI85
F0.01
sI86
F0.01
sI88
F0.01
sI89
F0.01
sI91
F0.01
sI92
F0.01
sI94
F0.01
sI95
F0.01
sI97
F0.01
sI98
F0.01
sI100
F0.01
sI101
F0.01
sI103
F0.01
sI104
F0.01
sI106
F0.01
sI107
F0.01
sI109
F0.01
sI110
F0.01
sI112
F0.01
sI113
F0.01
sI115
F0.01
sI116
F0.01
sI118
F0.01
sI119
F0.01
sI121
F0.01
sI122
F0.01
sI124
F0.01
sI125
F0.01
sI127
F0.01
sI128
F0.01
sI130
F0.01
sI131
F0.01
sI133
F0.01
sI134
F0.01
sI136
F0.01
sI137
F0.01
sI139
F0.01
sI140
F0.01
sI142
F0.01
sI143
F0.01
sI145
F0.01
sI146
F0.01
sI148
F0.01
sI149
F0.01
sI151
NsI152
NsI153
NssS'baseXYZ'
p1950
(dp1951
I1
g872
ssS'E'
p1952
(dp1953
I129
g136
(g140
S'E\xf8\x95\x00\xa4\xdax?'
p1954
tp1955
Rp1956
sI132
g136
(g140
S')\xf2\xde\x00&ip?'
p1957
tp1958
Rp1959
sI135
g136
(g140
S'D\xf9U\x8b\xff>w?'
p1960
tp1961
Rp1962
sI138
g136
(g140
S'\xb1\xf3\xba\xb1\xc5\xdep?'
p1963
tp1964
Rp1965
sI11
g136
(g140
S'\xe0C\xc6\x8f\xbd\xb2v?'
p1966
tp1967
Rp1968
sI141
g136
(g140
S'\xba\x8e -\x92Wq?'
p1969
tp1970
Rp1971
sI14
g136
(g140
S'Q\xee\xff\x88\xbf\x04|?'
p1972
tp1973
Rp1974
sI144
g136
(g140
S'O\xcf\xcc\xa4\xd3\x06q?'
p1975
tp1976
Rp1977
sI17
g136
(g140
S'DD\xa8\x9e\x96-t?'
p1978
tp1979
Rp1980
sI147
g136
(g140
S'\x18Mx\xee\xa6\rv?'
p1981
tp1982
Rp1983
sI20
g136
(g140
S'\r\x19A\xc1I\xb6x?'
p1984
tp1985
Rp1986
sI150
g136
(g140
S'w]S\xb2MIs?'
p1987
tp1988
Rp1989
sI23
g136
(g140
S'\xe3S\xed\xc1\xc9&u?'
p1990
tp1991
Rp1992
sI27
g136
(g140
S']\xcbRm$\x84t?'
p1993
tp1994
Rp1995
sI30
g136
(g140
S'B\xfd\xe6\xcc\xfe\xc3q?'
p1996
tp1997
Rp1998
sI33
g136
(g140
S'{\xfd\xa8\xac\xaaVv?'
p1999
tp2000
Rp2001
sI36
g136
(g140
S'\x943D\xe16\xe4q?'
p2002
tp2003
Rp2004
sI39
g136
(g140
S'\xe8$\x05\x0fq\xd5r?'
p2005
tp2006
Rp2007
sI42
g136
(g140
S'\x95\xc6\xfdZ*1u?'
p2008
tp2009
Rp2010
sI45
g136
(g140
S'\xbf:\xc3\xd8\xe1)q?'
p2011
tp2012
Rp2013
sI48
g136
(g140
S'\xf5\x01UI\xef\xacr?'
p2014
tp2015
Rp2016
sI51
g136
(g140
S"\xdc\xf0'\xde\xe4\xadt?"
p2017
tp2018
Rp2019
sI54
g136
(g140
S'\xbdk\x9b3\r\xfar?'
p2020
tp2021
Rp2022
sI57
g136
(g140
S'7\xd3"\xd2\t\x9ds?'
p2023
tp2024
Rp2025
sI60
g136
(g140
S'\xad7j\x13\x81\xe7r?'
p2026
tp2027
Rp2028
sI63
g136
(g140
S'\xcf\x9eI(\xb2Ps?'
p2029
tp2030
Rp2031
sI66
g136
(g140
S'w\x8f\x15\\0\x9fp?'
p2032
tp2033
Rp2034
sI69
g136
(g140
S'8\x8f\xf66l*u?'
p2035
tp2036
Rp2037
sI72
g136
(g140
S':\xfe)\x1b_Vq?'
p2038
tp2039
Rp2040
sI75
g136
(g140
S'\xaen\xf1\xef?\x95s?'
p2041
tp2042
Rp2043
sI78
g136
(g140
S'_\xac\xcaOLit?'
p2044
tp2045
Rp2046
sI84
g136
(g140
S'\xf5\xba8\xb1n\x9au?'
p2047
tp2048
Rp2049
sI87
g136
(g140
S'\xf2J\t\xf5KWv?'
p2050
tp2051
Rp2052
sI90
g136
(g140
S'\x8fT2.\x9d\xc5s?'
p2053
tp2054
Rp2055
sI93
g136
(g140
S'z\xe9\xbe\xca\x9ajt?'
p2056
tp2057
Rp2058
sI96
g136
(g140
S'\x01kA$\xc9\xa0t?'
p2059
tp2060
Rp2061
sI99
g136
(g140
S'\x9bW\xbe\xd6<Gx?'
p2062
tp2063
Rp2064
sI102
g136
(g140
S'a\x7f\xaf\xc9\xb0\xb8q?'
p2065
tp2066
Rp2067
sI105
g136
(g140
S'\x13\xc9\xa3\x02^]t?'
p2068
tp2069
Rp2070
sI108
g136
(g140
S'\xe3\xb4H\xdcH#t?'
p2071
tp2072
Rp2073
sI111
g136
(g140
S'\xa9l]s$st?'
p2074
tp2075
Rp2076
sI114
g136
(g140
S'v\xad\x08\x1c1\x18s?'
p2077
tp2078
Rp2079
sI117
g136
(g140
S'./\xa6\xbe_\xeds?'
p2080
tp2081
Rp2082
sI120
g136
(g140
S'\x10\x05\xf1\x82\x9c\nr?'
p2083
tp2084
Rp2085
sI123
g136
(g140
S'\xc5\xa93}\xbc\xc7p?'
p2086
tp2087
Rp2088
sI126
g136
(g140
S'\xd1\xae\xb3\x9d\x12\xdep?'
p2089
tp2090
Rp2091
ssS'TopPositionPoints'
p2092
(dp2093
I129
g867
(g868
(I0
tp2094
g870
tp2095
Rp2096
(I1
(I5
I3
tp2097
g140
I00
S'\xa3p=\n\xd7\xc3J\xc0\xf1Q\xb8\x1e\x85\xab5@\xe1z\x14\xaeG\t`@\x8f\xc2\xf5(\\OK\xc0\x0b\x00\x00\x00\x00\x00,@\xcd\xcc\xcc\xcc\xcc\x1c_@\x85\xebQ\xb8\x1e\xe5I\xc0\xf6Q\xb8\x1e\x85\xeb"@\xa4p=\n\xd7\x03`@\xecQ\xb8\x1e\x85+E\xc0\xa2\x99\x99\x99\x99\x99"@\x00\x00\x00\x00\x00\xc0_@\x85\xebQ\xb8\x1e\xa5D\xc0\xacp=\n\xd7#/@\xecQ\xb8\x1e\x85\x93`@'
p2098
tp2099
bsI132
g867
(g868
(I0
tp2100
g870
tp2101
Rp2102
(I1
(I5
I3
tp2103
g140
I00
S'\xf4(\\\x8f\xc2\xd5C\xc0J\xe1z\x14\xae\xc7@@\xcd\xcc\xcc\xcc\xcc\xfc`@o=\n\xd7\xa3\x10C\xc0T\xb8\x1e\x85\xeb1B@33333#`@\xc1\xf5(\\\x8fBF\xc0s=\n\xd7\xa3\x90B@\x00\x00\x00\x00\x00`_@\xdfz\x14\xaeG\xa1I\xc0t=\n\xd7\xa3pB@\xecQ\xb8\x1e\x85S`@\xadG\xe1z\x14.J\xc0\x80\x14\xaeG\xe1z:@)\\\x8f\xc2\xf5\xb0`@'
p2104
tp2105
bsI135
g867
(g868
(I0
tp2106
g870
tp2107
Rp2108
(I1
(I5
I3
tp2109
g140
I00
S"<\n\xd7\xa3p\xfdK\xc083333\xb30@H\xe1z\x14\xae\xdfa@H\xe1z\x14\xae'K\xc0]\xe1z\x14\xaeG\x1b@\x85\xebQ\xb8\x1e\xfda@q=\n\xd7\xa3pH\xc0'\xaeG\xe1z\x14\x14@\x8f\xc2\xf5(\\\x9fa@\xb8\x1e\x85\xebQ\x98C\xc0'\x85\xebQ\xb8\x1e!@R\xb8\x1e\x85\xeb\x91a@\xc2\xf5(\\\x8fBC\xc0iffff\xe62@\xa4p=\n\xd7\x13b@"
p2110
tp2111
bsI138
g867
(g868
(I0
tp2112
g870
tp2113
Rp2114
(I1
(I5
I3
tp2115
g140
I00
S'\xb7\x1e\x85\xebQ\x98G\xc0\xf1Q\xb8\x1e\x85\xab6@33333{b@\x83\xebQ\xb8\x1e\xc5D\xc0\xc7\xf5(\\\x8f\xc2>@\x00\x00\x00\x00\x00\x88b@\x08\xd7\xa3p=JD\xc0\xf8(\\\x8f\xc2\xb5@@\x8f\xc2\xf5(\\ga@13333SH\xc0\xc6\xf5(\\\x8f\xe2C@\xb8\x1e\x85\xebQha@\xcb\xcc\xcc\xcc\xcc\xccH\xc0\r\xd7\xa3p=JC@=\n\xd7\xa3p\xa5b@'
p2116
tp2117
bsI11
g867
(g868
(I0
tp2118
g870
tp2119
Rp2120
(I1
(I5
I3
tp2121
g140
I00
S'+\\\x8f\xc2\xf5(\x1d\xc0\x8c\xc2\xf5(\\\x8f\x15\xc0\x8f\xc2\xf5(\\oH@J\xe1z\x14\xaeG\x1e\xc0\xe9Q\xb8\x1e\x85\xeb\x15\xc0\xcd\xcc\xcc\xcc\xcc\xccG@\xc5\xf5(\\\x8f\xc2\x1d\xc0n=\n\xd7\xa3p\x12\xc0\\\x8f\xc2\xf5(|G@\xb0G\xe1z\x14\xae\x1b\xc0:\n\xd7\xa3p=\x10\xc0\xcd\xcc\xcc\xcc\xcc\xccF@J\xe1z\x14\xaeG\x18\xc0\x05\xd7\xa3p=\n\r\xc0\xaeG\xe1z\x14nG@'
p2122
tp2123
bsI141
g867
(g868
(I0
tp2124
g870
tp2125
Rp2126
(I1
(I5
I3
tp2127
g140
I00
S'\xdfz\x14\xaeG\xa1N\xc0_\x8f\xc2\xf5(\x1cD@fffffvb@\x99\x99\x99\x99\x99\tP\xc0\xe4z\x14\xaeG\xe1B@\xb8\x1e\x85\xebQXa@\xb8\x1e\x85\xebQHP\xc0\x95\xc2\xf5(\\O?@\xa4p=\n\xd7\xc3`@{\x14\xaeG\xe1\x1aQ\xc0X\xb8\x1e\x85\xeb\x91;@=\n\xd7\xa3p\x05b@y\x14\xaeG\xe1\xbaO\xc0%\x85\xebQ\xb8^=@\\\x8f\xc2\xf5(\x04c@'
p2128
tp2129
bsI14
g867
(g868
(I0
tp2130
g870
tp2131
Rp2132
(I1
(I5
I3
tp2133
g140
I00
S'233333\xf3\xbf\x92\xc2\xf5(\\\x8f\xe2?\xf6(\\\x8f\xc2UG@\xd7\xa3p=\n\xd7\x0b\xc0\x98\xf5(\\\x8f\xc2\xc5\xbf\xaeG\xe1z\x14\x0eE@\xecQ\xb8\x1e\x85\xeb\x18\xc0|\xebQ\xb8\x1e\x85\xfb\xbfH\xe1z\x14\xaeGE@fffff\xe6"\xc0\xe8(\\\x8f\xc2\xf5\xf0\xbf\\\x8f\xc2\xf5(\x1cF@\xecQ\xb8\x1e\x85k$\xc0\x06)\\\x8f\xc2\xf5\xfc?\xc3\xf5(\\\x8fBG@'
p2134
tp2135
bsI144
g867
(g868
(I0
tp2136
g870
tp2137
Rp2138
(I1
(I5
I3
tp2139
g140
I00
S'\xadG\xe1z\x14\x0eJ\xc0kffff&9@\xb8\x1e\x85\xebQ\xb8d@\xb7\x1e\x85\xebQ\x18H\xc0\xd2\xcc\xcc\xcc\xccL4@\x00\x00\x00\x00\x00\xf0c@13333\x93E\xc0L\xe1z\x14\xaeG>@fffff>c@\x84\xebQ\xb8\x1e\xa5G\xc0\xa9p=\n\xd7c<@\x85\xebQ\xb8\x1e\xfdc@\xa2p=\n\xd7\x03L\xc0\xd0\xcc\xcc\xcc\xcc,@@)\\\x8f\xc2\xf5@d@'
p2140
tp2141
bsI17
g867
(g868
(I0
tp2142
g870
tp2143
Rp2144
(I1
(I5
I3
tp2145
g140
I00
S'\xc2\x14\xaeG\xe1z\xd4\xbfq=\n\xd7\xa3\xf0&\xc0\xe1z\x14\xaeG\xe1I@v\x8f\xc2\xf5(\\\xe7\xbf\n\xd7\xa3p=\x8a \xc0\n\xd7\xa3p=\xeaF@kfffff\x04\xc0\xc2\xf5(\\\x8f\xc2\x1a\xc0\x1f\x85\xebQ\xb8\x9eE@\xd3\x13\xaeG\xe1z\x94?\n\xd7\xa3p=\n\xfb\xbf\x14\xaeG\xe1z\xd4E@\xa4p=\n\xd7\xa3\xfc?H\n\xd7\xa3p=\xda\xbf\xa4p=\n\xd7CH@'
p2146
tp2147
bsI147
g867
(g868
(I0
tp2148
g870
tp2149
Rp2150
(I1
(I5
I3
tp2151
g140
I00
S'\x85\xebQ\xb8\x1euQ\xc0\xd3\xcc\xcc\xcc\xcc\x8c<@\x85\xebQ\xb8\x1eed@\xadG\xe1z\x14\xeeR\xc0\xf9(\\\x8f\xc2\xb5A@\xb8\x1e\x85\xebQxc@\\\x8f\xc2\xf5(\xccS\xc0\xf4Q\xb8\x1e\x85+;@\xc3\xf5(\\\x8fzc@\x1f\x85\xebQ\xb8\xaeR\xc0P\xe1z\x14\xae\x074@\x8f\xc2\xf5(\\_c@\x13\xaeG\xe1z\x84Q\xc0\xd0\xcc\xcc\xcc\xcc,@@\x1f\x85\xebQ\xb8nd@'
p2152
tp2153
bsI20
g867
(g868
(I0
tp2154
g870
tp2155
Rp2156
(I1
(I5
I3
tp2157
g140
I00
S'\xa1p=\n\xd7\xa3\x0c@\x88\xebQ\xb8\x1e\x85\t\xc0)\\\x8f\xc2\xf5\x88L@\xe1z\x14\xaeG\xe1\x13@\xd5\xcc\xcc\xcc\xcc\xcc\xf8\xbfq=\n\xd7\xa3\x10I@\xd0\xcc\xcc\xcc\xcc\xcc\xec?\x1e\x85\xebQ\xb8\x1e\xf1?{\x14\xaeG\xe1ZG@;\n\xd7\xa3p=\x11\xc0\xda\xa3p=\n\xd7\r@\xaeG\xe1z\x14NI@\xac\x1e\x85\xebQ\xb8\xf6\xbf\x00\x00\x00\x00\x00\x00\x1e@\xc3\xf5(\\\x8f\xe2J@'
p2158
tp2159
bsI150
g867
(g868
(I0
tp2160
g870
tp2161
Rp2162
(I1
(I5
I3
tp2163
g140
I00
S'\x08\xd7\xa3p=\xeaI\xc0\x17\xaeG\xe1z\x14B@H\xe1z\x14\xae7e@\x98\x99\x99\x99\x99\x99I\xc0\xefQ\xb8\x1e\x85KF@\xb8\x1e\x85\xebQ\x88d@&\\\x8f\xc2\xf5(M\xc0K\xe1z\x14\xae\x07I@\x00\x00\x00\x00\x00\x18d@\x1e\x85\xebQ\xb8.P\xc0\xbb\x1e\x85\xebQ\x98H@R\xb8\x1e\x85\xeb\x19e@\xcc\xcc\xcc\xcc\xcc\xacP\xc0\xc6\xf5(\\\x8f\x82C@=\n\xd7\xa3p\x15e@'
p2164
tp2165
bsI23
g867
(g868
(I0
tp2166
g870
tp2167
Rp2168
(I1
(I5
I3
tp2169
g140
I00
S'G\xe1z\x14\xae\xc7 @"\x85\xebQ\xb8\x1e\x13\xc0)\\\x8f\xc2\xf5\xe8N@\xebQ\xb8\x1e\x85\xeb$@`\x8f\xc2\xf5(\\\x12\xc0q=\n\xd7\xa3\xd0L@\xaeG\xe1z\x14."@\x97\xc2\xf5(\\\x8f\x0e\xc0H\xe1z\x14\xaegK@)\\\x8f\xc2\xf5(\x18@\xffQ\xb8\x1e\x85\xeb\xe9\xbfR\xb8\x1e\x85\xeb\xf1J@\x0b\xd7\xa3p=\n\x11@\xdez\x14\xaeG\xe1\x00@\x9a\x99\x99\x99\x99\x99L@'
p2170
tp2171
bsI27
g867
(g868
(I0
tp2172
g870
tp2173
Rp2174
(I1
(I5
I3
tp2175
g140
I00
S'dfffff @}\x14\xaeG\xe1z"\xc0fffff\x06R@\xdfz\x14\xaeGa%@53333\xb3\'\xc0q=\n\xd7\xa3\xe0P@\xcb\xcc\xcc\xcc\xccL @\xf8(\\\x8f\xc2u"\xc033333\x13N@\xe0z\x14\xaeGa#@\xbb\x1e\x85\xebQ\xb8\x11\xc0fffff\xa6N@)\\\x8f\xc2\xf5(\x1c@\x1e\\\x8f\xc2\xf5(\xf0?\xf6(\\\x8f\xc2%Q@'
p2176
tp2177
bsI30
g867
(g868
(I0
tp2178
g870
tp2179
Rp2180
(I1
(I5
I3
tp2181
g140
I00
S"\\\x8f\xc2\xf5(\xdc&@\x03\xaeG\xe1z\x14\xf2?\n\xd7\xa3p=zQ@\xf6(\\\x8f\xc2u'@\xc4\xcc\xcc\xcc\xcc\xcc\x08@|\x14\xaeG\xe1\xbaO@\xb9\x1e\x85\xebQ\xb8(@\xfb\xff\xff\xff\xff\xff\x1c@333333O@v=\n\xd7\xa3p\x18@z\x14\xaeG\xe1\xfa%@\n\xd7\xa3p=ZQ@b\x8f\xc2\xf5(\\\x03@\xff\xff\xff\xff\xff\xff\x1b@\xecQ\xb8\x1e\x85\xfbQ@"
p2182
tp2183
bsI33
g867
(g868
(I0
tp2184
g870
tp2185
Rp2186
(I1
(I5
I3
tp2187
g140
I00
S"\xdez\x14\xaeG\xe1\x13@\xf8(\\\x8f\xc2\xf5\x1e\xc0=\n\xd7\xa3p\xbdT@\x1d\x85\xebQ\xb8\x9e%@hffff\xe6$\xc0\xcd\xcc\xcc\xcc\xcc\xbcS@\xacG\xe1z\x14\xae#@\xa6p=\n\xd7\xa3'\xc0\xd7\xa3p=\n\x87Q@\xc1\xf5(\\\x8f\xc2!@\x02\x00\x00\x00\x00\x00 \xc0)\\\x8f\xc2\xf5HQ@\xd6\xa3p=\n\xd7\x18@\xf1Q\xb8\x1e\x85\xeb\x03\xc0\xaeG\xe1z\x14NR@"
p2188
tp2189
bsI36
g867
(g868
(I0
tp2190
g870
tp2191
Rp2192
(I1
(I5
I3
tp2193
g140
I00
S'\n\xd7\xa3p=\x8a0@\xcf\x9c\x99\x99\x99\x99\xa9\xbf=\n\xd7\xa3p\xadS@\x14\xaeG\xe1z\x140@<\xd7\xa3p=\n\xef\xbf\x9a\x99\x99\x99\x99\x19R@\xafG\xe1z\x14\xae.@\xa8G\xe1z\x14\xae\x17@\xa4p=\n\xd7CQ@!\x85\xebQ\xb8\x9e&@\xa2p=\n\xd7\xa3%@\n\xd7\xa3p=\xaaR@U\xb8\x1e\x85\xebQ\x16@Z\x8f\xc2\xf5(\\\x1a@H\xe1z\x14\xae\xc7S@'
p2194
tp2195
bsI39
g867
(g868
(I0
tp2196
g870
tp2197
Rp2198
(I1
(I5
I3
tp2199
g140
I00
S'O\xb8\x1e\x85\xebQ.@_\x8f\xc2\xf5(\\+\xc0\xcd\xcc\xcc\xcc\xcc<U@\t\xd7\xa3p=\n0@\x9d\x99\x99\x99\x99\x19(\xc0\x85\xebQ\xb8\x1e\xe5R@\x99\x99\x99\x99\x99\x99/@%\x85\xebQ\xb8\x1e\x1c\xc0\xd7\xa3p=\ngR@\xb8\x1e\x85\xebQ\xf80@6\\\x8f\xc2\xf5(\x06\xc0\x8f\xc2\xf5(\\OS@\x1f\x85\xebQ\xb8\x9e"@-\x85\xebQ\xb8\x1e\xf1\xbf)\\\x8f\xc2\xf5\x18T@'
p2200
tp2201
bsI42
g867
(g868
(I0
tp2202
g870
tp2203
Rp2204
(I1
(I5
I3
tp2205
g140
I00
S'\xc3\xf5(\\\x8f\x823@\\\x85\xebQ\xb8\x1e\xe5\xbf\x1f\x85\xebQ\xb8nV@R\xb8\x1e\x85\xeb\xd12@<\x85\xebQ\xb8\x1e\xf1\xbffffff\x86T@\xd7\xa3p=\n\xd7\x1f@\x98p=\n\xd7\xa3\xf8?fffff\x06T@hffff\xe6*@W\x8f\xc2\xf5(\\\x1f@\n\xd7\xa3p=JT@\xf8(\\\x8f\xc2u%@\x08\xd7\xa3p=\x8a#@)\\\x8f\xc2\xf5XV@'
p2206
tp2207
bsI45
g867
(g868
(I0
tp2208
g870
tp2209
Rp2210
(I1
(I5
I3
tp2211
g140
I00
S'[\x8f\xc2\xf5(\x1c2@@\n\xd7\xa3p="\xc0)\\\x8f\xc2\xf5xY@\xb6\x1e\x85\xebQ\xf85@T\xb8\x1e\x85\xeb\xd10\xc0fffff\xc6W@G\xe1z\x14\xae\xc78@\xe6z\x14\xaeGa\'\xc0)\\\x8f\xc2\xf5\x18V@33333\xb37@offfff\x16\xc0\xf6(\\\x8f\xc2\xe5U@)\\\x8f\xc2\xf5(0@\x91\xf5(\\\x8f\xc2\xe5?\xcd\xcc\xcc\xcc\xcc\xdcV@'
p2212
tp2213
bsI48
g867
(g868
(I0
tp2214
g870
tp2215
Rp2216
(I1
(I5
I3
tp2217
g140
I00
S'fffff&8@\x04\\\x8f\xc2\xf5(\xf8?\xa4p=\n\xd7\xc3Y@fffff&:@\x90z\x14\xaeG\xe1\xe2?\xaeG\xe1z\x14nX@\xa5p=\n\xd7\xa38@\x0f\xaeG\xe1z\x14"@\x85\xebQ\xb8\x1eeW@r=\n\xd7\xa3\xb02@\xc0\xf5(\\\x8fB*@\xcd\xcc\xcc\xcc\xcc|X@533333(@\xb5\x1e\x85\xebQ8 @\\\x8f\xc2\xf5(\xccY@'
p2218
tp2219
bsI51
g867
(g868
(I0
tp2220
g870
tp2221
Rp2222
(I1
(I5
I3
tp2223
g140
I00
S'n=\n\xd7\xa3\xf0&@r=\n\xd7\xa300\xc0\x8f\xc2\xf5(\\o\\@W\x8f\xc2\xf5(\\+@\xa5p=\n\xd7#7\xc0\x1f\x85\xebQ\xb8.[@\x97\x99\x99\x99\x99Y0@\xf8(\\\x8f\xc2u8\xc0R\xb8\x1e\x85\xeb\xb1Y@\x13\xaeG\xe1z\x146@v=\n\xd7\xa3p,\xc0\xcd\xcc\xcc\xcc\xcc,Y@23333\xb34@`\x8f\xc2\xf5(\xdc!\xc0q=\n\xd7\xa3pZ@'
p2224
tp2225
bsI54
g867
(g868
(I0
tp2226
g870
tp2227
Rp2228
(I1
(I5
I3
tp2229
g140
I00
S'{\x14\xaeG\xe1\xfa6@Y\xe1z\x14\xaeG\t\xc0R\xb8\x1e\x85\xeb\x81]@\xcd\xcc\xcc\xcc\xcc\x0c;@\xf8p=\n\xd7\xa3\xe8\xbf\xc3\xf5(\\\x8f\xc2[@\x1f\x85\xebQ\xb8^8@\xa5G\xe1z\x14\xae\x15@\xa4p=\n\xd7\xc3[@\xafG\xe1z\x14\xee2@O\xb8\x1e\x85\xeb\xd1"@\xecQ\xb8\x1e\x85\xab\\@J\xe1z\x14\xae\xc7+@\xe7Q\xb8\x1e\x85\xeb\x1e@\x9a\x99\x99\x99\x99\xb9]@'
p2230
tp2231
bsI57
g867
(g868
(I0
tp2232
g870
tp2233
Rp2234
(I1
(I5
I3
tp2235
g140
I00
S'\x12\xaeG\xe1zT0@\xd0\xcc\xcc\xcc\xcc\xcc/\xc0\x1f\x85\xebQ\xb8^`@P\xb8\x1e\x85\xeb\x119@\xc6\xf5(\\\x8f\x822\xc0\\\x8f\xc2\xf5(<`@\xa2p=\n\xd7c9@ifffff6\xc0\\\x8f\xc2\xf5(<^@\xcc\xcc\xcc\xcc\xcc\xcc<@\xa0\x99\x99\x99\x99\x19*\xc0\xe1z\x14\xaeG\xd1]@\\\x8f\xc2\xf5(\x9c9@\xf6Q\xb8\x1e\x85\xeb\x1d\xc0ffffff^@'
p2236
tp2237
bsI60
g867
(g868
(I0
tp2238
g870
tp2239
Rp2240
(I1
(I5
I3
tp2241
g140
I00
S'\x14\xaeG\xe1z\xd4<@]\xb8\x1e\x85\xebQ\x11\xc0\xc3\xf5(\\\x8f"a@=\n\xd7\xa3p\xfd>@mS\xb8\x1e\x85\xeb\xc1\xbf{\x14\xaeG\xe1\n`@\x00\x00\x00\x00\x00\x80:@\xb8\xd6\xa3p=\n\xef?\x9a\x99\x99\x99\x99\xd9_@\xa5p=\n\xd7c5@9\n\xd7\xa3p=!@33333{`@\x9a\x99\x99\x99\x99Y1@D\xb8\x1e\x85\xebQ\x06@\xf6(\\\x8f\xc2\x15a@'
p2242
tp2243
bsI63
g867
(g868
(I0
tp2244
g870
tp2245
Rp2246
(I1
(I5
I3
tp2247
g140
I00
S'\x83\xebQ\xb8\x1e\x05:@\x9d\x99\x99\x99\x99Y0\xc0H\xe1z\x14\xae\xcfb@\x08\xd7\xa3p=\n>@\xbb\x1e\x85\xebQ\xf84\xc0\x00\x00\x00\x00\x00\xb8a@13333\xb3?@\x92\xc2\xf5(\\\x0f3\xc033333\xe3`@q=\n\xd7\xa3\xd0A@\xb4G\xe1z\x14.-\xc0\xecQ\xb8\x1e\x85\x83a@\x8f\xc2\xf5(\\\xcf>@^\xb8\x1e\x85\xebQ\x19\xc033333\xb3a@'
p2248
tp2249
bsI66
g867
(g868
(I0
tp2250
g870
tp2251
Rp2252
(I1
(I5
I3
tp2253
g140
I00
S"33333\xd3A@-\x85\xebQ\xb8\x1e\x1d\xc033333\xcbb@=\n\xd7\xa3p\xbdD@w)\\\x8f\xc2\xf5\xe8\xbfR\xb8\x1e\x85\xeb\x01b@ffffffA@\x81\xc2\xf5(\\\x8f\x1e@\xc3\xf5(\\\x8fja@43333\xb3?@L\xb8\x1e\x85\xebQ'@\x00\x00\x00\x00\x00\x88b@\x8f\xc2\xf5(\\\x8f;@[fffff\x1f@\n\xd7\xa3p=\x12c@"
p2254
tp2255
bsI69
g867
(g868
(I0
tp2256
g870
tp2257
Rp2258
(I1
(I5
I3
tp2259
g140
I00
S'\t\xd7\xa3p=J7@\x19\xaeG\xe1z\x94#\xc0fffff\x9ed@P\xb8\x1e\x85\xeb\x91:@\x17\xaeG\xe1zT3\xc0=\n\xd7\xa3pud@\x8d\xc2\xf5(\\O5@hfffff5\xc0q=\n\xd7\xa38c@\xff\xff\xff\xff\xff\xff@@63333\xf31\xc0\xa4p=\n\xd7Cc@{\x14\xaeG\xe1\xba@@\xf2Q\xb8\x1e\x85\xeb#\xc0R\xb8\x1e\x85\xeb)d@'
p2260
tp2261
bsI72
g867
(g868
(I0
tp2262
g870
tp2263
Rp2264
(I1
(I5
I3
tp2265
g140
I00
S"\xecQ\xb8\x1e\x85+B@\xe9z\x14\xaeGa'\xc0\xaeG\xe1z\x14\x9ed@fffff\x86F@\x84\x14\xaeG\xe1\xfa%\xc0\xe1z\x14\xaeG!d@\xc3\xf5(\\\x8f\x82F@\x07)\\\x8f\xc2\xf5\x16\xc0{\x14\xaeG\xe1Bc@R\xb8\x1e\x85\xeb1E@t\xebQ\xb8\x1e\x85\x15@fffff\x9ec@\xaeG\xe1z\x14nD@\xc7\xa3p=\n\xd7\x11@\xc3\xf5(\\\x8f\xa2d@"
p2266
tp2267
bsI75
g867
(g868
(I0
tp2268
g870
tp2269
Rp2270
(I1
(I5
I3
tp2271
g140
I00
S'\xf6(\\\x8f\xc259@z=\n\xd7\xa3p\x16\xc0\xe1z\x14\xaeG\xc9e@H\xe1z\x14\xae\x87@@\xc8G\xe1z\x14\xae\t\xc0\xecQ\xb8\x1e\x85+f@=\n\xd7\xa3p=<@\xe2\xa3p=\n\xd7\x1b\xc0\xf6(\\\x8f\xc2=f@33333\xd3A@\x81\x14\xaeG\xe1\xfa#\xc0)\\\x8f\xc2\xf5\x10e@\\\x8f\xc2\xf5(\x9cD@&fffff\xf6?\x1f\x85\xebQ\xb8>e@'
p2272
tp2273
bsI78
g867
(g868
(I0
tp2274
g870
tp2275
Rp2276
(I1
(I5
I3
tp2277
g140
I00
S'\xc3\xf5(\\\x8f\xe2C@+3333\xb3-@\xf6(\\\x8f\xc2]f@\x9b\x99\x99\x99\x999F@\x80\xebQ\xb8\x1e\x850@\xe1z\x14\xaeGYe@\x9b\x99\x99\x99\x99\x19A@x\x14\xaeG\xe1\xfa0@\x1f\x85\xebQ\xb8Nd@^\x8f\xc2\xf5(\x9c9@\xf1(\\\x8f\xc2\xf5-@\n\xd7\xa3p=be@?\n\xd7\xa3p\xbd?@\xb5\x1e\x85\xebQ80@fffffNf@'
p2278
tp2279
bsI84
g867
(g868
(I0
tp2280
g870
tp2281
Rp2282
(I1
(I5
I3
tp2283
g140
I00
S'\xc3\xf5(\\\x8fB,\xc0\xc1\xa3p=\n\xd7\xf7\xbf\x1f\x85\xebQ\xb8\x1eG@\xc3\xf5(\\\x8fB*\xc0\x1f33333\xfb\xbf\n\xd7\xa3p=\xcaE@\xecQ\xb8\x1e\x85\xeb%\xc0\xd4(\\\x8f\xc2\xf5\xe0\xbffffff\xc6E@\x8f\xc2\xf5(\\\x8f"\xc0#\x8f\xc2\xf5(\\\xdf\xbfR\xb8\x1e\x85\xeb\xf1E@\xedQ\xb8\x1e\x85\xeb"\xc0\x82\xebQ\xb8\x1e\x85\x10\xc0)\\\x8f\xc2\xf5\xc8F@'
p2284
tp2285
bsI87
g867
(g868
(I0
tp2286
g870
tp2287
Rp2288
(I1
(I5
I3
tp2289
g140
I00
S')\\\x8f\xc2\xf5\xa8&\xc0\xa623333\xc3\xbfq=\n\xd7\xa3\xf0I@ffffff/\xc01\n\xd7\xa3p=\x0c\xc0\xe1z\x14\xaeG\x01I@333333/\xc0\xd5z\x14\xaeG\xe1\x06\xc0\xf6(\\\x8f\xc2\xf5G@\xecQ\xb8\x1e\x85\xeb%\xc0\xee(\\\x8f\xc2\xf5\x0e\xc033333\xb3G@\xf7(\\\x8f\xc2\xf5%\xc0.33333\x17\xc0\x1f\x85\xebQ\xb8>H@'
p2290
tp2291
bsI90
g867
(g868
(I0
tp2292
g870
tp2293
Rp2294
(I1
(I5
I3
tp2295
g140
I00
S'\x1e\x85\xebQ\xb8\x9e2\xc0\xc6\xf5(\\\x8f\xc2$@\x85\xebQ\xb8\x1e\xe5J@(\\\x8f\xc2\xf5h1\xc0\xe4z\x14\xaeG\xe1$@\xd7\xa3p=\n\xd7H@\xff\xff\xff\xff\xff\xff*\xc0v=\n\xd7\xa3p\x15@\x14\xaeG\xe1z4G@\xadG\xe1z\x14.-\xc0\x06\x00\x00\x00\x00\x00\x11@\x8f\xc2\xf5(\\oF@R\xb8\x1e\x85\xebQ1\xc0\xa8\x99\x99\x99\x99\x99\x07@{\x14\xaeG\xe1zG@'
p2296
tp2297
bsI93
g867
(g868
(I0
tp2298
g870
tp2299
Rp2300
(I1
(I5
I3
tp2301
g140
I00
S'{\x14\xaeG\xe1:5\xc0P\xe1z\x14\xaeG\x19@fffff&O@\\\x8f\xc2\xf5(\\7\xc0\x13\xd7\xa3p=\n\x10@\xa4p=\n\xd7\x83L@\xa4p=\n\xd7\xe37\xc0\x94[\x8f\xc2\xf5(\xdc\xbfH\xe1z\x14\xae\xe7J@\x9a\x99\x99\x99\x99\x997\xc0Sfffff\x06\xc0\xc3\xf5(\\\x8f\xa2L@{\x14\xaeG\xe1\xba7\xc0 33333\t\xc0\x14\xaeG\xe1zDP@'
p2302
tp2303
bsI96
g867
(g868
(I0
tp2304
g870
tp2305
Rp2306
(I1
(I5
I3
tp2307
g140
I00
S'P\xb8\x1e\x85\xeb\x116\xc053333s2@q=\n\xd7\xa3\xd0L@G\xe1z\x14\xae\x073\xc0\r\xd7\xa3p=\n,@{\x14\xaeG\xe1:I@\xff\xff\xff\xff\xff\x7f4\xc0\x0e\xd7\xa3p=\x8a!@\x1f\x85\xebQ\xb8\xdeG@\x8f\xc2\xf5(\\\xcf8\xc0\t\x00\x00\x00\x00\x00\x10@\x14\xaeG\xe1z\xf4I@\x14\xaeG\xe1z\x14<\xc0H\n\xd7\xa3p=\x17@\xecQ\xb8\x1e\x85KM@'
p2308
tp2309
bsI99
g867
(g868
(I0
tp2310
g870
tp2311
Rp2312
(I1
(I5
I3
tp2313
g140
I00
S'23333s9\xc0\xbd\x1e\x85\xebQ\xb8!@\x14\xaeG\xe1z\xa4Q@\xcd\xcc\xcc\xcc\xcc\x0c<\xc0\xe3\xcc\xcc\xcc\xcc\xcc\n@\n\xd7\xa3p=\xbaR@R\xb8\x1e\x85\xeb\x916\xc0\x03\xaeG\xe1z\x14\x08\xc033333SR@\xd7\xa3p=\nW*\xc0\x8533333\xd3?\xecQ\xb8\x1e\x85;S@\xa4p=\n\xd7c0\xc0%\x85\xebQ\xb8\x1e\x15@q=\n\xd7\xa3PT@'
p2314
tp2315
bsI102
g867
(g868
(I0
tp2316
g870
tp2317
Rp2318
(I1
(I5
I3
tp2319
g140
I00
S"y\x14\xaeG\xe1z:\xc0\xa7p=\n\xd7#7@\xd7\xa3p=\nwQ@\x08\xd7\xa3p=\n8\xc0\r\xd7\xa3p=\xca6@\x9a\x99\x99\x99\x99\x19O@\x8d\xc2\xf5(\\\x0f;\xc0t=\n\xd7\xa3\xf01@\x1f\x85\xebQ\xb8~L@\x99\x99\x99\x99\x99\xd9>\xc0\xd3\xcc\xcc\xcc\xccL(@{\x14\xaeG\xe1\xfaM@\xd6\xa3p=\n\x97?\xc0\xd3\xcc\xcc\xcc\xcc\xcc'@\xb8\x1e\x85\xebQHQ@"
p2320
tp2321
bsI105
g867
(g868
(I0
tp2322
g870
tp2323
Rp2324
(I1
(I5
I3
tp2325
g140
I00
S'\x83\xebQ\xb8\x1e\xc5=\xc0\x95\xc2\xf5(\\\x0f.@\xecQ\xb8\x1e\x85\xbbR@)\\\x8f\xc2\xf5\xc8A\xc0w=\n\xd7\xa3p+@\xb8\x1e\x85\xebQ8Q@\xd7\xa3p=\nwA\xc0\xe5\xa3p=\n\xd7\x1a@\x1f\x85\xebQ\xb8^P@q=\n\xd7\xa3\xd0A\xc0\x9efffff\xfa?\x00\x00\x00\x00\x00\xc0Q@\x1f\x85\xebQ\xb8\xbeA\xc0Y\n\xd7\xa3p=\n@\xaeG\xe1z\x14\x8eS@'
p2326
tp2327
bsI108
g867
(g868
(I0
tp2328
g870
tp2329
Rp2330
(I1
(I5
I3
tp2331
g140
I00
S'\x12\xaeG\xe1zT6\xc0+\\\x8f\xc2\xf5h6@fffff6U@\x07\xd7\xa3p=\n:\xc0\x17\xaeG\xe1zT:@\x00\x00\x00\x00\x00PT@&\\\x8f\xc2\xf5(>\xc0\x92\xc2\xf5(\\\xcf9@{\x14\xaeG\xe1\xcaS@Q\xb8\x1e\x85\xeb1A\xc0\x92\xc2\xf5(\\\xcf3@\n\xd7\xa3p=\xbaS@[\x8f\xc2\xf5(\xbc@\xc0~\x14\xaeG\xe1:2@\xb8\x1e\x85\xebQhU@'
p2332
tp2333
bsI111
g867
(g868
(I0
tp2334
g870
tp2335
Rp2336
(I1
(I5
I3
tp2337
g140
I00
S'=\n\xd7\xa3p]D\xc0;33333*@\x8f\xc2\xf5(\\_U@\x85\xebQ\xb8\x1e\xa5D\xc0\xdd\xcc\xcc\xcc\xcc\xcc\x1c@q=\n\xd7\xa3 T@\x8f\xc2\xf5(\\\xefE\xc0%{\x14\xaeG\xe1\xfe?\n\xd7\xa3p=\xeaT@\x1f\x85\xebQ\xb8\x9eE\xc0:\\\x8f\xc2\xf5(\x16@\\\x8f\xc2\xf5(lW@fffff\x86B\xc0\x93\xebQ\xb8\x1e\x85\x16@\xe1z\x14\xaeG\x91W@'
p2338
tp2339
bsI114
g867
(g868
(I0
tp2340
g870
tp2341
Rp2342
(I1
(I5
I3
tp2343
g140
I00
S'y\x14\xaeG\xe1\xba=\xc0\xb1G\xe1z\x14\xee7@)\\\x8f\xc2\xf5\xd8X@[\x8f\xc2\xf5(\x1cA\xc0@\n\xd7\xa3p=;@fffffVW@\x13\xaeG\xe1z\xb4A\xc0K\xe1z\x14\xae\xc77@=\n\xd7\xa3p}U@effff\xe6C\xc0\x92\xc2\xf5(\\\xcf5@\xf6(\\\x8f\xc2UV@\xa3p=\n\xd7\x03D\xc0#\x85\xebQ\xb8^6@)\\\x8f\xc2\xf5HX@'
p2344
tp2345
bsI117
g867
(g868
(I0
tp2346
g870
tp2347
Rp2348
(I1
(I5
I3
tp2349
g140
I00
S"\n\xd7\xa3p=\nF\xc0\xa3\x99\x99\x99\x99\x99.@\xd7\xa3p=\n\x87Y@33333sH\xc0\x8e\xebQ\xb8\x1e\x05'@fffff\xf6Y@\\\x8f\xc2\xf5(\xfcG\xc0e\xb8\x1e\x85\xebQ\x14@\\\x8f\xc2\xf5(lZ@\x00\x00\x00\x00\x00\xe0D\xc0\xaa\x99\x99\x99\x99\x99\x10@\xcd\xcc\xcc\xcc\xcc\xccZ@=\n\xd7\xa3p]D\xc01\\\x8f\xc2\xf5\xa8$@\xecQ\xb8\x1e\x85\xbb[@"
p2350
tp2351
bsI120
g867
(g868
(I0
tp2352
g870
tp2353
Rp2354
(I1
(I5
I3
tp2355
g140
I00
S'\x82\xebQ\xb8\x1e\xc5;\xc0@\n\xd7\xa3p\xfd;@R\xb8\x1e\x85\xebA\\@\xca\xcc\xcc\xcc\xccL9\xc0"\x85\xebQ\xb8\xde=@\xe1z\x14\xaeG\xc1Z@&\\\x8f\xc2\xf5\xa8>\xc0\xa6p=\n\xd7\x03@@\xecQ\xb8\x1e\x85+Y@\x08\xd7\xa3p=jB\xc0\x87\xebQ\xb8\x1eEA@\xecQ\xb8\x1e\x85\x9bZ@\t\xd7\xa3p=\xeaC\xc0\xa7p=\n\xd7\xe3<@\xcd\xcc\xcc\xcc\xcc\xdcZ@'
p2356
tp2357
bsI123
g867
(g868
(I0
tp2358
g870
tp2359
Rp2360
(I1
(I5
I3
tp2361
g140
I00
S'\xadG\xe1z\x14\x8eG\xc0.\\\x8f\xc2\xf5h9@\xaeG\xe1z\x14\x8e\\@\xb7\x1e\x85\xebQ\xb8H\xc0\xa9p=\n\xd7\xa39@\x8f\xc2\xf5(\\O[@\x8e\xc2\xf5(\\\xefH\xc0\xdc\xa3p=\n\x974@\x00\x00\x00\x00\x00pZ@\x1e\x85\xebQ\xb8\xdeI\xc0\x9f\x99\x99\x99\x99\x191@\x85\xebQ\xb8\x1e\xc5[@\x85\xebQ\xb8\x1e\xc5H\xc0\xd6\xcc\xcc\xcc\xcc\xcc/@\\\x8f\xc2\xf5(|]@'
p2362
tp2363
bsI126
g867
(g868
(I0
tp2364
g870
tp2365
Rp2366
(I1
(I5
I3
tp2367
g140
I00
S'\x1c\x85\xebQ\xb8\xde?\xc0~\x14\xaeG\xe1z?@\x1f\x85\xebQ\xb8\x8e_@\xabG\xe1z\x14\xae:\xc043333s@@\xecQ\xb8\x1e\x85\xfb]@O\xb8\x1e\x85\xebQ=\xc0hffff\x86A@\\\x8f\xc2\xf5(\xec\\@\x08\xd7\xa3p=\nA\xc0\xf8(\\\x8f\xc2\xd5B@\n\xd7\xa3p=Z]@F\xe1z\x14\xae\x07D\xc0^\x8f\xc2\xf5(\x1cA@\xc3\xf5(\\\x8fb^@'
p2368
tp2369
bssS'Tlc'
p2370
(dp2371
I129
g136
(g140
S'0X)\xd0i\xf1<@'
p2372
tp2373
Rp2374
sI132
g136
(g140
S'\x10\xdc\xb3\r\x8d\x7f9@'
p2375
tp2376
Rp2377
sI135
g136
(g140
S'P.`!D9=@'
p2378
tp2379
Rp2380
sI138
g136
(g140
S'\x90S\xfc_\xc8":@'
p2381
tp2382
Rp2383
sI11
g136
(g140
S'\xd0e\x9cA\xcff:@'
p2384
tp2385
Rp2386
sI141
g136
(g140
S'\x10}d\x08\x16t:@'
p2387
tp2388
Rp2389
sI14
g136
(g140
S'\x10\x88\x01Z\xe8\xe4<@'
p2390
tp2391
Rp2392
sI144
g136
(g140
S'\x90\x87\xeeB\x97\xfa9@'
p2393
tp2394
Rp2395
sI17
g136
(g140
S'\x10\xce\x0f\xefx\xbd:@'
p2396
tp2397
Rp2398
sI147
g136
(g140
S'\x80\xb0\x1f\x02\xddl<@'
p2399
tp2400
Rp2401
sI20
g136
(g140
S'@rQ6\x03\xb7<@'
p2402
tp2403
Rp2404
sI150
g136
(g140
S'\xa0\xf7m\xc1V\xa9:@'
p2405
tp2406
Rp2407
sI23
g136
(g140
S'p\x99;0\xeaL;@'
p2408
tp2409
Rp2410
sI27
g136
(g140
S'\x00\xfc`Qx>;@'
p2411
tp2412
Rp2413
sI30
g136
(g140
S'\x80\x10\xb1\xee8l:@'
p2414
tp2415
Rp2416
sI33
g136
(g140
S'\x90Xe|\xad\xe6;@'
p2417
tp2418
Rp2419
sI36
g136
(g140
S'\xd0c\x16\x03\xf7\x8a:@'
p2420
tp2421
Rp2422
sI39
g136
(g140
S'p\xec\x905\x82\xb9:@'
p2423
tp2424
Rp2425
sI42
g136
(g140
S'0\xd2d=&x;@'
p2426
tp2427
Rp2428
sI45
g136
(g140
S'`\xba\xfb1"(:@'
p2429
tp2430
Rp2431
sI48
g136
(g140
S'0\x8a\xe1\xf1\x87\x16;@'
p2432
tp2433
Rp2434
sI51
g136
(g140
S'\x90\x06B\xec\x94\xd3;@'
p2435
tp2436
Rp2437
sI54
g136
(g140
S'`\x7fH&Q\xc9:@'
p2438
tp2439
Rp2440
sI57
g136
(g140
S'`\xe1\xb0\x03\xd55;@'
p2441
tp2442
Rp2443
sI60
g136
(g140
S'\xb0\xdeF)\xfb\x8d:@'
p2444
tp2445
Rp2446
sI63
g136
(g140
S'\xa0o\xbb*\xbaI;@'
p2447
tp2448
Rp2449
sI66
g136
(g140
S'\xe0\xa2\xb8@\xc7\xe29@'
p2450
tp2451
Rp2452
sI69
g136
(g140
S'0\xb5=C\xa0\x17<@'
p2453
tp2454
Rp2455
sI72
g136
(g140
S'\xe0\xd1\xd1\xab\x8fX:@'
p2456
tp2457
Rp2458
sI75
g136
(g140
S'@\xa1X\xf3\xb2\x01;@'
p2459
tp2460
Rp2461
sI78
g136
(g140
S'P4\xc8\xe0u\x90;@'
p2462
tp2463
Rp2464
sI84
g136
(g140
S' \xe3\xa8\xf2\xed\xc9:@'
p2465
tp2466
Rp2467
sI87
g136
(g140
S'\xf0i\x12H\x03\x87;@'
p2468
tp2469
Rp2470
sI90
g136
(g140
S'0G7\xe2\x1b\xc5:@'
p2471
tp2472
Rp2473
sI93
g136
(g140
S'`\xf4\x08R\x19j;@'
p2474
tp2475
Rp2476
sI96
g136
(g140
S'PZ\xbf<5Z;@'
p2477
tp2478
Rp2479
sI99
g136
(g140
S'\xd0\x1c$\xad\xfbM<@'
p2480
tp2481
Rp2482
sI102
g136
(g140
S'0w7%\xf9N:@'
p2483
tp2484
Rp2485
sI105
g136
(g140
S'p\xcc4e\x86`;@'
p2486
tp2487
Rp2488
sI108
g136
(g140
S'@etj;\x0e;@'
p2489
tp2490
Rp2491
sI111
g136
(g140
S'\x90\xc1\xcf\xc9,\x83;@'
p2492
tp2493
Rp2494
sI114
g136
(g140
S'\xd0R\xed\xac\x17\xef:@'
p2495
tp2496
Rp2497
sI117
g136
(g140
S'\xb0\x0b\xacrMC;@'
p2498
tp2499
Rp2500
sI120
g136
(g140
S'\xa0\x1e\xde\x02=\x9f:@'
p2501
tp2502
Rp2503
sI123
g136
(g140
S' \xaa\xd85\xb3\xf69@'
p2504
tp2505
Rp2506
sI126
g136
(g140
S' B\xd4<m\x14:@'
p2507
tp2508
Rp2509
ssS'Flux'
p2510
(dp2511
I3
g136
(g140
S'R;\xe2\\\xdd\xc3\n?'
p2512
tp2513
Rp2514
sI4
g136
(g140
S'R;\xe2\\\xdd\xc3\n?'
p2515
tp2516
Rp2517
sI5
g136
(g140
S'R;\xe2\\\xdd\xc3\n?'
p2518
tp2519
Rp2520
sI6
g136
(g140
S'R;\xe2\\\xdd\xc3\n?'
p2521
tp2522
Rp2523
sI7
g136
(g140
S'R;\xe2\\\xdd\xc3\n?'
p2524
tp2525
Rp2526
sI9
g136
(g140
S'\xab\xa4\x05\x04\x7f\x9d\xfb>'
p2527
tp2528
Rp2529
sI10
g136
(g140
S'\xb8\xc69\x18+\xc4g>'
p2530
tp2531
Rp2532
sI11
g136
(g140
S'\xb8\xc69\x18+\xc4g>'
p2533
tp2534
Rp2535
sI12
g136
(g140
S'\xc8\x87y\xee\x9c\x91\xfb>'
p2536
tp2537
Rp2538
sI13
g136
(g140
S'\xd0c\xa3\xb1\x04`\xa0>'
p2539
tp2540
Rp2541
sI14
g136
(g140
S'\xd0c\xa3\xb1\x04`\xa0>'
p2542
tp2543
Rp2544
sI15
g136
(g140
S'\xa9l\xec\xc8\x9c\x0e\xfb>'
p2545
tp2546
Rp2547
sI16
g136
(g140
S'\xf7\xa0\xc1\xc2\x07k\xa4>'
p2548
tp2549
Rp2550
sI17
g136
(g140
S'\xf7\xa0\xc1\xc2\x07k\xa4>'
p2551
tp2552
Rp2553
sI18
g136
(g140
S'\xa1_\xd6\x8aDk\xfa>'
p2554
tp2555
Rp2556
sI19
g136
(g140
S'Yu\xef\xcdKA\xb0>'
p2557
tp2558
Rp2559
sI20
g136
(g140
S'Yu\xef\xcdKA\xb0>'
p2560
tp2561
Rp2562
sI21
g136
(g140
S'Kh\xf7\xcd/g\xf9>'
p2563
tp2564
Rp2565
sI22
g136
(g140
S'(!\xb8\xc2\xf2\xd5\x9f>'
p2566
tp2567
Rp2568
sI23
g136
(g140
S'(!\xb8\xc2\xf2\xd5\x9f>'
p2569
tp2570
Rp2571
sI24
g136
(g140
S'\xc6\x87\xec\x02\xd8\xe7\xf8>'
p2572
tp2573
Rp2574
sI25
g136
(g140
S'\xc6\x87\xec\x02\xd8\xe7\xf8>'
p2575
tp2576
Rp2577
sI26
g136
(g140
S'\xa6\x9f\xd5\x12\xab\x9b\xb0>'
p2578
tp2579
Rp2580
sI27
g136
(g140
S'\xa6\x9f\xd5\x12\xab\x9b\xb0>'
p2581
tp2582
Rp2583
sI28
g136
(g140
S'\xcc-\xbfQ\x1d\xde\xf7>'
p2584
tp2585
Rp2586
sI29
g136
(g140
S'\xcd\x01>;\xd6z\xa8>'
p2587
tp2588
Rp2589
sI30
g136
(g140
S'\xcd\x01>;\xd6z\xa8>'
p2590
tp2591
Rp2592
sI31
g136
(g140
S'\xbe=\xe5\x9fF\x1a\xf7>'
p2593
tp2594
Rp2595
sI32
g136
(g140
S'K\x0c3\xb6Mp\xb0>'
p2596
tp2597
Rp2598
sI33
g136
(g140
S'K\x0c3\xb6Mp\xb0>'
p2599
tp2600
Rp2601
sI34
g136
(g140
S'\xf9\x0c\x82\xc4A\x13\xf6>'
p2602
tp2603
Rp2604
sI35
g136
(g140
S"'\xe5\x9dU\x19`\xaf>"
p2605
tp2606
Rp2607
sI36
g136
(g140
S"'\xe5\x9dU\x19`\xaf>"
p2608
tp2609
Rp2610
sI37
g136
(g140
S'\xd0\x1d\xd5\xf9@\x18\xf5>'
p2611
tp2612
Rp2613
sI38
g136
(g140
S'\xfcv\x8d\x01J\xf6\xb0>'
p2614
tp2615
Rp2616
sI39
g136
(g140
S'\xfcv\x8d\x01J\xf6\xb0>'
p2617
tp2618
Rp2619
sI40
g136
(g140
S'`F\xbcY\xdc\x08\xf4>'
p2620
tp2621
Rp2622
sI41
g136
(g140
S'y\x03\\\x0b\x16R\xb8>'
p2623
tp2624
Rp2625
sI42
g136
(g140
S'y\x03\\\x0b\x16R\xb8>'
p2626
tp2627
Rp2628
sI43
g136
(g140
S'(\x86\x06\xf9\xba\x83\xf2>'
p2629
tp2630
Rp2631
sI44
g136
(g140
S'\xc5d\x9cyK\x99\xb6>'
p2632
tp2633
Rp2634
sI45
g136
(g140
S'\xc5d\x9cyK\x99\xb6>'
p2635
tp2636
Rp2637
sI46
g136
(g140
S'\xdc\xbflA&\x1a\xf1>'
p2638
tp2639
Rp2640
sI47
g136
(g140
S'a\xa0\xe6\x00\x06o\xb5>'
p2641
tp2642
Rp2643
sI48
g136
(g140
S'a\xa0\xe6\x00\x06o\xb5>'
p2644
tp2645
Rp2646
sI49
g136
(g140
S'\xac\xab\xbc\xc2k\x86\xef>'
p2647
tp2648
Rp2649
sI50
g136
(g140
S'\xc6\xab\xb6\x8d\xa0\x1b\xb9>'
p2650
tp2651
Rp2652
sI51
g136
(g140
S'\xc6\xab\xb6\x8d\xa0\x1b\xb9>'
p2653
tp2654
Rp2655
sI52
g136
(g140
S'3\xd6\x05\xb1\xf7b\xec>'
p2656
tp2657
Rp2658
sI53
g136
(g140
S'\x81\x85\x1f\x1f\x8d!\xb2>'
p2659
tp2660
Rp2661
sI54
g136
(g140
S'\x81\x85\x1f\x1f\x8d!\xb2>'
p2662
tp2663
Rp2664
sI55
g136
(g140
S'\x83\xe5!\r\xc6\x1e\xea>'
p2665
tp2666
Rp2667
sI56
g136
(g140
S'g\x94\xb2h\xb0\x85\xb7>'
p2668
tp2669
Rp2670
sI57
g136
(g140
S'g\x94\xb2h\xb0\x85\xb7>'
p2671
tp2672
Rp2673
sI58
g136
(g140
S'\xf6\x92\x0b\x00\x10.\xe7>'
p2674
tp2675
Rp2676
sI59
g136
(g140
S'r0\x899\xc9\xd3\xb2>'
p2677
tp2678
Rp2679
sI60
g136
(g140
S'r0\x899\xc9\xd3\xb2>'
p2680
tp2681
Rp2682
sI61
g136
(g140
S'\xe8l\xda\xd8\x96\xd3\xe4>'
p2683
tp2684
Rp2685
sI62
g136
(g140
S'\xfc\xd6L\xff\x82\x96\xb7>'
p2686
tp2687
Rp2688
sI63
g136
(g140
S'\xfc\xd6L\xff\x82\x96\xb7>'
p2689
tp2690
Rp2691
sI64
g136
(g140
S'\x08\xd2\xf0x\xc6\xe0\xe1>'
p2692
tp2693
Rp2694
sI65
g136
(g140
S'<\xb8!vT\xe2\xb9>'
p2695
tp2696
Rp2697
sI66
g136
(g140
S'<\xb8!vT\xe2\xb9>'
p2698
tp2699
Rp2700
sI67
g136
(g140
S'\x026Y\xd4\xf7H\xdd>'
p2701
tp2702
Rp2703
sI68
g136
(g140
S'\x92\xc9\x05\x9e1$\xbe>'
p2704
tp2705
Rp2706
sI69
g136
(g140
S'\x92\xc9\x05\x9e1$\xbe>'
p2707
tp2708
Rp2709
sI70
g136
(g140
S'\x9d\xc3\xd7l\xeb\xbf\xd5>'
p2710
tp2711
Rp2712
sI71
g136
(g140
S'\xf4\xe7B\x0c~\x98\xb9>'
p2713
tp2714
Rp2715
sI72
g136
(g140
S'\xf4\xe7B\x0c~\x98\xb9>'
p2716
tp2717
Rp2718
sI73
g136
(g140
S'@\x13\x8e\xd3\x97\xb3\xce>'
p2719
tp2720
Rp2721
sI74
g136
(g140
S'\xe6\xd7^\xd5<1\xbe>'
p2722
tp2723
Rp2724
sI75
g136
(g140
S'\xe6\xd7^\xd5<1\xbe>'
p2725
tp2726
Rp2727
sI76
g136
(g140
S'\x99N\xbd\xd1\xf25\xbf>'
p2728
tp2729
Rp2730
sI77
g136
(g140
S'\x99N\xbd\xd1\xf25\xbf>'
p2731
tp2732
Rp2733
sI78
g136
(g140
S'\x99N\xbd\xd1\xf25\xbf>'
p2734
tp2735
Rp2736
sI79
g136
(g140
S'\xfa\xd1\xbe\xb5;\xea\xf9>'
p2737
tp2738
Rp2739
sI81
g136
(g140
S'\xfa\xd1\xbe\xb5;\xea\xf9>'
p2740
tp2741
Rp2742
sI82
g136
(g140
S'\xfa\xd1\xbe\xb5;\xea\xf9>'
p2743
tp2744
Rp2745
sI83
g136
(g140
S'\xa1kx\x17\x16\x1e\x85>'
p2746
tp2747
Rp2748
sI84
g136
(g140
S'\xa1kx\x17\x16\x1e\x85>'
p2749
tp2750
Rp2751
sI85
g136
(g140
S'#\xe1\x8f\x89\xff\xbf\xf9>'
p2752
tp2753
Rp2754
sI86
g136
(g140
S'J\xe6\x98\xf5<\xe9\x9b>'
p2755
tp2756
Rp2757
sI87
g136
(g140
S'J\xe6\x98\xf5<\xe9\x9b>'
p2758
tp2759
Rp2760
sI88
g136
(g140
S'\x8a}\xb9\x95ZP\xf9>'
p2761
tp2762
Rp2763
sI89
g136
(g140
S'=\xfaA\xe7\x98\xad\xa0>'
p2764
tp2765
Rp2766
sI90
g136
(g140
S'=\xfaA\xe7\x98\xad\xa0>'
p2767
tp2768
Rp2769
sI91
g136
(g140
S'\xb8m\x7f\xce\xed\xca\xf8>'
p2770
tp2771
Rp2772
sI92
g136
(g140
S'\xfa\xa03\x13\xc5f\xa9>'
p2773
tp2774
Rp2775
sI93
g136
(g140
S'\xfa\xa03\x13\xc5f\xa9>'
p2776
tp2777
Rp2778
sI94
g136
(g140
S'\xb0\xd0\xe5\xa5\xb7\xff\xf7>'
p2779
tp2780
Rp2781
sI95
g136
(g140
S'\xd2\x02\xc2Y\xd4!\xb4>'
p2782
tp2783
Rp2784
sI96
g136
(g140
S'\xd2\x02\xc2Y\xd4!\xb4>'
p2785
tp2786
Rp2787
sI97
g136
(g140
S'\x83\xb0I`\x9a\xbd\xf6>'
p2788
tp2789
Rp2790
sI98
g136
(g140
S'\x8e\x918\x8a0\\\xb8>'
p2791
tp2792
Rp2793
sI99
g136
(g140
S'\x8e\x918\x8a0\\\xb8>'
p2794
tp2795
Rp2796
sI100
g136
(g140
S"j'\xa6W\xd77\xf5>"
p2797
tp2798
Rp2799
sI101
g136
(g140
S'F\xf8Y\x0f\xa7\xd4\xb1>'
p2800
tp2801
Rp2802
sI102
g136
(g140
S'F\xf8Y\x0f\xa7\xd4\xb1>'
p2803
tp2804
Rp2805
sI103
g136
(g140
S'\xe6\x87\xb0\xe6\x8c\x1a\xf4>'
p2806
tp2807
Rp2808
sI104
g136
(g140
S'\x13\x9ee\xb4f\xf9\xb2>'
p2809
tp2810
Rp2811
sI105
g136
(g140
S'\x13\x9ee\xb4f\xf9\xb2>'
p2812
tp2813
Rp2814
sI106
g136
(g140
S'\x05.j{\xf6\xea\xf2>'
p2815
tp2816
Rp2817
sI107
g136
(g140
S'\xdb\xbb8\x91t\x92\xaa>'
p2818
tp2819
Rp2820
sI108
g136
(g140
S'\xdb\xbb8\x91t\x92\xaa>'
p2821
tp2822
Rp2823
sI109
g136
(g140
S'&h\xe0\xd6b\x16\xf2>'
p2824
tp2825
Rp2826
sI110
g136
(g140
S'\xd0\x1f\xc1\x11j\xa7\xb1>'
p2827
tp2828
Rp2829
sI111
g136
(g140
S'\xd0\x1f\xc1\x11j\xa7\xb1>'
p2830
tp2831
Rp2832
sI112
g136
(g140
S')V\xc45\xec\xfb\xf0>'
p2833
tp2834
Rp2835
sI113
g136
(g140
S'\x8b\x17\xb2!\xfbM\xae>'
p2836
tp2837
Rp2838
sI114
g136
(g140
S'\x8b\x17\xb2!\xfbM\xae>'
p2839
tp2840
Rp2841
sI115
g136
(g140
S'm\xc5\xb6\\|\t\xf0>'
p2842
tp2843
Rp2844
sI116
g136
(g140
S'c\xa2;C\xcf\\\xaa>'
p2845
tp2846
Rp2847
sI117
g136
(g140
S'c\xa2;C\xcf\\\xaa>'
p2848
tp2849
Rp2850
sI118
g136
(g140
S'\xb4\xd09\xc5+m\xee>'
p2851
tp2852
Rp2853
sI119
g136
(g140
S'\n\xef\x1a\xc9\xbe_\xb3>'
p2854
tp2855
Rp2856
sI120
g136
(g140
S'\n\xef\x1a\xc9\xbe_\xb3>'
p2857
tp2858
Rp2859
sI121
g136
(g140
S'\xd3r\x16\xec3\x01\xec>'
p2860
tp2861
Rp2862
sI122
g136
(g140
S'\x8cE\x88\xbd\xb1\x99\xaf>'
p2863
tp2864
Rp2865
sI123
g136
(g140
S'\x8cE\x88\xbd\xb1\x99\xaf>'
p2866
tp2867
Rp2868
sI124
g136
(g140
S'z\xee=\xd0\x98\x07\xea>'
p2869
tp2870
Rp2871
sI125
g136
(g140
S'\xa1\x12\xdc\xfa\xd2M\xad>'
p2872
tp2873
Rp2874
sI126
g136
(g140
S'\xa1\x12\xdc\xfa\xd2M\xad>'
p2875
tp2876
Rp2877
sI127
g136
(g140
S'P-\x90\xa0\xbb2\xe8>'
p2878
tp2879
Rp2880
sI128
g136
(g140
S'-IS\x85>A\xb9>'
p2881
tp2882
Rp2883
sI129
g136
(g140
S'-IS\x85>A\xb9>'
p2884
tp2885
Rp2886
sI130
g136
(g140
S'*\xc4\xe5\xcf\x93\n\xe5>'
p2887
tp2888
Rp2889
sI131
g136
(g140
S'\x85\xa0\xae\xa6\xca\x11\xb2>'
p2890
tp2891
Rp2892
sI132
g136
(g140
S'\x85\xa0\xae\xa6\xca\x11\xb2>'
p2893
tp2894
Rp2895
sI133
g136
(g140
S'\x19\xf0\x0f{Z\xc8\xe2>'
p2896
tp2897
Rp2898
sI134
g136
(g140
S'\xc9\xf8\x03\x87gv\xc0>'
p2899
tp2900
Rp2901
sI135
g136
(g140
S'\xc9\xf8\x03\x87gv\xc0>'
p2902
tp2903
Rp2904
sI136
g136
(g140
S'\xcd\xe3\x9d2\x81U\xdd>'
p2905
tp2906
Rp2907
sI137
g136
(g140
S'\x84\xdc\xeb\xcb\x01\xa0\xb8>'
p2908
tp2909
Rp2910
sI138
g136
(g140
S'\x84\xdc\xeb\xcb\x01\xa0\xb8>'
p2911
tp2912
Rp2913
sI139
g136
(g140
S'\xac\xec\xa2\xbf\x80-\xd7>'
p2914
tp2915
Rp2916
sI140
g136
(g140
S'K\xc9\xa7(\xb70\xb5>'
p2917
tp2918
Rp2919
sI141
g136
(g140
S'K\xc9\xa7(\xb70\xb5>'
p2920
tp2921
Rp2922
sI142
g136
(g140
S'Y\xfax\xf5R\xe1\xd1>'
p2923
tp2924
Rp2925
sI143
g136
(g140
S'\x1c\xd6\x97\t\xc9\xf0\xb2>'
p2926
tp2927
Rp2928
sI144
g136
(g140
S'\x1c\xd6\x97\t\xc9\xf0\xb2>'
p2929
tp2930
Rp2931
sI145
g136
(g140
S'\xa4\t&fAJ\xca>'
p2932
tp2933
Rp2934
sI146
g136
(g140
S'f\xe2$R\xd69\xb8>'
p2935
tp2936
Rp2937
sI147
g136
(g140
S'f\xe2$R\xd69\xb8>'
p2938
tp2939
Rp2940
sI148
g136
(g140
S"\xe10'z\xacZ\xbc>"
p2941
tp2942
Rp2943
sI149
g136
(g140
S"\xe10'z\xacZ\xbc>"
p2944
tp2945
Rp2946
sI150
g136
(g140
S"\xe10'z\xacZ\xbc>"
p2947
tp2948
Rp2949
sI151
g136
(g140
S'R;\xe2\\\xdd\xc3\n?'
p2950
tp2951
Rp2952
sI152
g136
(g140
S'R;\xe2\\\xdd\xc3\n?'
p2953
tp2954
Rp2955
sI153
g136
(g140
S'R;\xe2\\\xdd\xc3\n?'
p2956
tp2957
Rp2958
ssS'Length'
p2959
(dp2960
I3
F10.06
sI4
F7.96
sI5
F3.2
sI6
F2.2
sI7
F3.06
sI9
F1.57
sI10
F2.77
sI11
F1.77
sI12
F0.79
sI13
F5.11
sI14
F4.49
sI15
F2.47
sI16
F6.84
sI17
F7.06
sI18
F4.29
sI19
F10.07
sI20
F8.81
sI21
F4.16
sI22
F8.29
sI23
F7.9
sI24
F5.67
sI25
F4.08
sI26
F7.1
sI27
F9.26
sI28
F3.37
sI29
F7.5
sI30
F11.55
sI31
F3.31
sI32
F7.9
sI33
F9.09
sI34
F5.77
sI35
F7.69
sI36
F12.07
sI37
F3.24
sI38
F8.12
sI39
F10.3
sI40
F5.44
sI41
F7.77
sI42
F9.25
sI43
F5.51
sI44
F9.38
sI45
F11.64
sI46
F6.5
sI47
F9.34
sI48
F14.05
sI49
F5.64
sI50
F8.93
sI51
F13.48
sI52
F9.16
sI53
F8.06
sI54
F10.62
sI55
F9.81
sI56
F7.96
sI57
F11.8
sI58
F7.99
sI59
F8.85
sI60
F9.18
sI61
F9.59
sI62
F8.7
sI63
F13.4
sI64
F7.58
sI65
F9.08
sI66
F11.56
sI67
F8.13
sI68
F7.8
sI69
F14.06
sI70
F9.23
sI71
F9.64
sI72
F12.72
sI73
F7.41
sI74
F5.08
sI75
F10.51
sI76
F7.49
sI77
F5.79
sI78
F12.63
sI79
F2.64
sI81
F1.38
sI82
F1.92
sI83
F5.26
sI84
F4.36
sI85
F3.58
sI86
F4.46
sI87
F6.77
sI88
F3.54
sI89
F7.0
sI90
F8.03
sI91
F3.38
sI92
F6.03
sI93
F11.02
sI94
F5.4
sI95
F8.62
sI96
F9.69
sI97
F6.02
sI98
F10.03
sI99
F7.39
sI100
F5.77
sI101
F6.41
sI102
F11.2
sI103
F6.06
sI104
F7.14
sI105
F10.91
sI106
F6.58
sI107
F7.42
sI108
F9.14
sI109
F6.49
sI110
F8.05
sI111
F11.72
sI112
F10.11
sI113
F6.63
sI114
F11.58
sI115
F7.06
sI116
F6.66
sI117
F10.98
sI118
F6.09
sI119
F7.43
sI120
F12.45
sI121
F9.02
sI122
F6.78
sI123
F12.16
sI124
F6.09
sI125
F5.17
sI126
F12.31
sI127
F7.0
sI128
F8.2
sI129
F9.59
sI130
F5.6
sI131
F6.53
sI132
F9.36
sI133
F7.09
sI134
F8.54
sI135
F16.27
sI136
F6.59
sI137
F6.72
sI138
F12.74
sI139
F8.28
sI140
F7.53
sI141
F14.28
sI142
F9.21
sI143
F8.62
sI144
F10.63
sI145
F8.96
sI146
F6.97
sI147
F13.4
sI148
F8.33
sI149
F10.73
sI150
F9.0
sI151
F0.167
sI152
F0.166
sI153
F0.16699999999999998
ssS'PhytoType'
p2961
(dp2962
I130
I1
sI133
I2
sI136
I0
sI9
I0
sI139
I1
sI12
I1
sI142
I2
sI15
I2
sI145
I0
sI18
I0
sI148
I1
sI21
I1
sI24
I2
sI25
I0
sI28
I1
sI31
I1
sI34
I2
sI37
I0
sI40
I1
sI43
I2
sI46
I0
sI49
I1
sI52
I2
sI55
I0
sI58
I1
sI61
I2
sI64
I0
sI67
I1
sI70
I2
sI73
I0
sI76
I1
sI81
I0
sI82
I1
sI85
I2
sI88
I0
sI91
I1
sI94
I2
sI97
I0
sI100
I1
sI103
I1
sI106
I2
sI109
I0
sI112
I1
sI115
I2
sI118
I0
sI121
I1
sI124
I2
sI127
I0
ssS'TopDiameter'
p2963
(dp2964
I3
g136
(g140
S'\xf2\xd2Mb\x10X\xfb?'
p2965
tp2966
Rp2967
sI4
g136
(g140
S'\xd5x\xe9&1\x08\x01@'
p2968
tp2969
Rp2970
sI5
g136
(g140
S'\x89A`\xe5\xd0"\x05@'
p2971
tp2972
Rp2973
sI6
g136
(g140
S'\xca\xa1E\xb6\xf3\xfd\xfa?'
p2974
tp2975
Rp2976
sI7
g136
(g140
S'\xc9v\xbe\x9f\x1a/\x01@'
p2977
tp2978
Rp2979
sI9
g136
(g140
S'#\xdb\xf9~j\xbc\xfe?'
p2980
tp2981
Rp2982
sI10
g136
(g140
S')\\\x8f\xc2\xf5(\xbc?'
p2983
tp2984
Rp2985
sI12
g136
(g140
S'\xfa~j\xbct\x93\xfa?'
p2986
tp2987
Rp2988
sI13
g136
(g140
S'\xdd$\x06\x81\x95C\xcb?'
p2989
tp2990
Rp2991
sI15
g136
(g140
S'\xe1z\x14\xaeG\xe1\xf2?'
p2992
tp2993
Rp2994
sI16
g136
(g140
S'\x96C\x8bl\xe7\xfb\xd1?'
p2995
tp2996
Rp2997
sI18
g136
(g140
S'333333\xf3?'
p2998
tp2999
Rp3000
sI19
g136
(g140
S'x\xe9&1\x08\xac\xd4?'
p3001
tp3002
Rp3003
sI21
g136
(g140
S'\xa6\x9b\xc4 \xb0r\xf0?'
p3004
tp3005
Rp3006
sI22
g136
(g140
S'\xecQ\xb8\x1e\x85\xeb\xd1?'
p3007
tp3008
Rp3009
sI24
g136
(g140
S'H\xe1z\x14\xaeG\xf1?'
p3010
tp3011
Rp3012
sI25
g136
(g140
S'%\x06\x81\x95C\x8b\xf0?'
p3013
tp3014
Rp3015
sI26
g136
(g140
S'\xea&1\x08\xac\x1c\xd2?'
p3016
tp3017
Rp3018
sI28
g136
(g140
S'V\x0e-\xb2\x9d\xef\xf1?'
p3019
tp3020
Rp3021
sI29
g136
(g140
S'\xf6(\\\x8f\xc2\xf5\xd0?'
p3022
tp3023
Rp3024
sI31
g136
(g140
S',\x87\x16\xd9\xce\xf7\xef?'
p3025
tp3026
Rp3027
sI32
g136
(g140
S'\xecQ\xb8\x1e\x85\xeb\xd1?'
p3028
tp3029
Rp3030
sI34
g136
(g140
S'\xdb\xf9~j\xbct\xef?'
p3031
tp3032
Rp3033
sI35
g136
(g140
S'\xd5x\xe9&1\x08\xd4?'
p3034
tp3035
Rp3036
sI37
g136
(g140
S'\x13\x83\xc0\xca\xa1E\xf0?'
p3037
tp3038
Rp3039
sI38
g136
(g140
S'{\x14\xaeG\xe1z\xd4?'
p3040
tp3041
Rp3042
sI40
g136
(g140
S'R\xb8\x1e\x85\xebQ\xf0?'
p3043
tp3044
Rp3045
sI41
g136
(g140
S'-\xb2\x9d\xef\xa7\xc6\xd3?'
p3046
tp3047
Rp3048
sI43
g136
(g140
S'-\xb2\x9d\xef\xa7\xc6\xef?'
p3049
tp3050
Rp3051
sI44
g136
(g140
S'\x87\x16\xd9\xce\xf7S\xd3?'
p3052
tp3053
Rp3054
sI46
g136
(g140
S'\x83\xc0\xca\xa1E\xb6\xef?'
p3055
tp3056
Rp3057
sI47
g136
(g140
S'#\xdb\xf9~j\xbc\xd4?'
p3058
tp3059
Rp3060
sI49
g136
(g140
S'\r\x02+\x87\x16\xd9\xee?'
p3061
tp3062
Rp3063
sI50
g136
(g140
S'!\xb0rh\x91\xed\xd4?'
p3064
tp3065
Rp3066
sI52
g136
(g140
S'H\xe1z\x14\xaeG\xed?'
p3067
tp3068
Rp3069
sI53
g136
(g140
S'X9\xb4\xc8v\xbe\xd7?'
p3070
tp3071
Rp3072
sI55
g136
(g140
S'\x8d\x97n\x12\x83\xc0\xea?'
p3073
tp3074
Rp3075
sI56
g136
(g140
S'\xbf\x9f\x1a/\xdd$\xd6?'
p3076
tp3077
Rp3078
sI58
g136
(g140
S'V\x0e-\xb2\x9d\xef\xeb?'
p3079
tp3080
Rp3081
sI59
g136
(g140
S'sh\x91\xed|?\xd5?'
p3082
tp3083
Rp3084
sI61
g136
(g140
S'j\xbct\x93\x18\x04\xee?'
p3085
tp3086
Rp3087
sI62
g136
(g140
S'\x0e-\xb2\x9d\xef\xa7\xd6?'
p3088
tp3089
Rp3090
sI64
g136
(g140
S'!\xb0rh\x91\xed\xec?'
p3091
tp3092
Rp3093
sI65
g136
(g140
S'\x12\x83\xc0\xca\xa1E\xde?'
p3094
tp3095
Rp3096
sI67
g136
(g140
S'x\xe9&1\x08\xac\xec?'
p3097
tp3098
Rp3099
sI68
g136
(g140
S'\x96C\x8bl\xe7\xfb\xe1?'
p3100
tp3101
Rp3102
sI70
g136
(g140
S'\xb2\x9d\xef\xa7\xc6K\xeb?'
p3103
tp3104
Rp3105
sI71
g136
(g140
S'Zd;\xdfO\x8d\xdf?'
p3106
tp3107
Rp3108
sI73
g136
(g140
S'\xd4x\xe9&1\x08\xe8?'
p3109
tp3110
Rp3111
sI74
g136
(g140
S'\xb1rh\x91\xed|\xdf?'
p3112
tp3113
Rp3114
sI76
g136
(g140
S'D\x8bl\xe7\xfb\xa9\xe9?'
p3115
tp3116
Rp3117
sI77
g136
(g140
S'_\xbaI\x0c\x02+\xdf?'
p3118
tp3119
Rp3120
sI79
g136
(g140
S'\xb0rh\x91\xed|\x01@'
p3121
tp3122
Rp3123
sI81
g136
(g140
S'\x85\xebQ\xb8\x1e\x85\xff?'
p3124
tp3125
Rp3126
sI82
g136
(g140
S'\xc5 \xb0rh\x91\xfb?'
p3127
tp3128
Rp3129
sI83
g136
(g140
S'\x8f\xc2\xf5(\\\x8f\xc2?'
p3130
tp3131
Rp3132
sI85
g136
(g140
S'T\xe3\xa5\x9b\xc4 \xf0?'
p3133
tp3134
Rp3135
sI86
g136
(g140
S'-\xb2\x9d\xef\xa7\xc6\xcb?'
p3136
tp3137
Rp3138
sI88
g136
(g140
S'5^\xbaI\x0c\x02\xf3?'
p3139
tp3140
Rp3141
sI89
g136
(g140
S'\xb1rh\x91\xed|\xcf?'
p3142
tp3143
Rp3144
sI91
g136
(g140
S'\x06\x81\x95C\x8bl\xf3?'
p3145
tp3146
Rp3147
sI92
g136
(g140
S'333333\xd3?'
p3148
tp3149
Rp3150
sI94
g136
(g140
S'\x13\x83\xc0\xca\xa1E\xf0?'
p3151
tp3152
Rp3153
sI95
g136
(g140
S'\xca\xa1E\xb6\xf3\xfd\xd4?'
p3154
tp3155
Rp3156
sI97
g136
(g140
S'V\x0e-\xb2\x9d\xef\xef?'
p3157
tp3158
Rp3159
sI98
g136
(g140
S'\x1f\x85\xebQ\xb8\x1e\xd5?'
p3160
tp3161
Rp3162
sI100
g136
(g140
S'w\xbe\x9f\x1a/\xdd\xec?'
p3163
tp3164
Rp3165
sI101
g136
(g140
S'\x08\xac\x1cZd;\xd7?'
p3166
tp3167
Rp3168
sI103
g136
(g140
S'A`\xe5\xd0"\xdb\xe9?'
p3169
tp3170
Rp3171
sI104
g136
(g140
S'O\x8d\x97n\x12\x83\xd8?'
p3172
tp3173
Rp3174
sI106
g136
(g140
S'\xc6K7\x89A`\xe9?'
p3175
tp3176
Rp3177
sI107
g136
(g140
S'?5^\xbaI\x0c\xd2?'
p3178
tp3179
Rp3180
sI109
g136
(g140
S'\xaeG\xe1z\x14\xae\xeb?'
p3181
tp3182
Rp3183
sI110
g136
(g140
S'!\xb0rh\x91\xed\xd4?'
p3184
tp3185
Rp3186
sI112
g136
(g140
S'333333\xeb?'
p3187
tp3188
Rp3189
sI113
g136
(g140
S'\xe1z\x14\xaeG\xe1\xd2?'
p3190
tp3191
Rp3192
sI115
g136
(g140
S'\x89A`\xe5\xd0"\xeb?'
p3193
tp3194
Rp3195
sI116
g136
(g140
S'\xe3\xa5\x9b\xc4 \xb0\xd2?'
p3196
tp3197
Rp3198
sI118
g136
(g140
S')\\\x8f\xc2\xf5(\xe8?'
p3199
tp3200
Rp3201
sI119
g136
(g140
S'\xd7\xa3p=\n\xd7\xd3?'
p3202
tp3203
Rp3204
sI121
g136
(g140
S'sh\x91\xed|?\xe9?'
p3205
tp3206
Rp3207
sI122
g136
(g140
S'E\xb6\xf3\xfd\xd4x\xd9?'
p3208
tp3209
Rp3210
sI124
g136
(g140
S'{\x14\xaeG\xe1z\xe8?'
p3211
tp3212
Rp3213
sI125
g136
(g140
S'\xa1E\xb6\xf3\xfd\xd4\xd8?'
p3214
tp3215
Rp3216
sI127
g136
(g140
S'\xf2\xd2Mb\x10X\xe9?'
p3217
tp3218
Rp3219
sI128
g136
(g140
S'\x1f\x85\xebQ\xb8\x1e\xdd?'
p3220
tp3221
Rp3222
sI130
g136
(g140
S'm\xe7\xfb\xa9\xf1\xd2\xe9?'
p3223
tp3224
Rp3225
sI131
g136
(g140
S'\xb1rh\x91\xed|\xd7?'
p3226
tp3227
Rp3228
sI133
g136
(g140
S'\xd3Mb\x10X9\xe8?'
p3229
tp3230
Rp3231
sI134
g136
(g140
S'\xef\xa7\xc6K7\x89\xd9?'
p3232
tp3233
Rp3234
sI136
g136
(g140
S'\x0e-\xb2\x9d\xef\xa7\xea?'
p3235
tp3236
Rp3237
sI137
g136
(g140
S't\x93\x18\x04V\x0e\xdd?'
p3238
tp3239
Rp3240
sI139
g136
(g140
S'\xc0\xca\xa1E\xb6\xf3\xe9?'
p3241
tp3242
Rp3243
sI140
g136
(g140
S'}?5^\xbaI\xdc?'
p3244
tp3245
Rp3246
sI142
g136
(g140
S')\\\x8f\xc2\xf5(\xe8?'
p3247
tp3248
Rp3249
sI143
g136
(g140
S'\xecQ\xb8\x1e\x85\xeb\xd9?'
p3250
tp3251
Rp3252
sI145
g136
(g140
S'_\xbaI\x0c\x02+\xe7?'
p3253
tp3254
Rp3255
sI146
g136
(g140
S'J\x0c\x02+\x87\x16\xe1?'
p3256
tp3257
Rp3258
sI148
g136
(g140
S'\x9d\xef\xa7\xc6K7\xe5?'
p3259
tp3260
Rp3261
sI149
g136
(g140
S'\x1dZd;\xdfO\xe1?'
p3262
tp3263
Rp3264
sI151
F0.334
sI152
F0.666
sI153
F1.0
ssS'soil_class'
p3265
(dp3266
I152
VSand
p3267
sI153
g3267
sI151
g3267
ssS'vid_base'
p3268
(dp3269
I0
I153
ssS'BotDiameter'
p3270
(dp3271
I3
g2967
sI4
g2967
sI5
g2970
sI6
g2973
sI7
g2976
sI9
g2982
sI10
g2985
sI12
g2988
sI13
g2991
sI15
g2994
sI16
g2997
sI18
g3000
sI19
g3003
sI21
g3006
sI22
g3009
sI24
g3012
sI25
g3015
sI26
g3018
sI28
g3021
sI29
g3024
sI31
g3027
sI32
g3030
sI34
g3033
sI35
g3036
sI37
g3039
sI38
g3042
sI40
g3045
sI41
g3048
sI43
g3051
sI44
g3054
sI46
g3057
sI47
g3060
sI49
g3063
sI50
g3066
sI52
g3069
sI53
g3072
sI55
g3075
sI56
g3078
sI58
g3081
sI59
g3084
sI61
g3087
sI62
g3090
sI64
g3093
sI65
g3096
sI67
g3099
sI68
g3102
sI70
g3105
sI71
g3108
sI73
g3111
sI74
g3114
sI76
g3117
sI77
g3120
sI79
g2979
sI81
g3126
sI82
g3129
sI83
g3132
sI85
g3135
sI86
g3138
sI88
g3141
sI89
g3144
sI91
g3147
sI92
g3150
sI94
g3153
sI95
g3156
sI97
g3159
sI98
g3162
sI100
g3165
sI101
g3168
sI103
g3171
sI104
g3174
sI106
g3177
sI107
g3180
sI109
g3183
sI110
g3186
sI112
g3189
sI113
g3192
sI115
g3195
sI116
g3198
sI118
g3201
sI119
g3204
sI121
g3207
sI122
g3210
sI124
g3213
sI125
g3216
sI127
g3219
sI128
g3222
sI130
g3225
sI131
g3228
sI133
g3231
sI134
g3234
sI136
g3237
sI137
g3240
sI139
g3243
sI140
g3246
sI142
g3249
sI143
g3252
sI145
g3255
sI146
g3258
sI148
g3261
sI149
g3264
sI151
F0.334
sI152
F0.666
sI153
F1.0
ssS'Ci'
p3272
(dp3273
I129
g136
(g140
S'Fo?\xeeGEu@'
p3274
tp3275
Rp3276
sI132
g136
(g140
S'\x14\xe6!\x8b\x8a9u@'
p3277
tp3278
Rp3279
sI135
g136
(g140
S'\xdfvy\xbd\x18Eu@'
p3280
tp3281
Rp3282
sI138
g136
(g140
S'\xb5\x94\xff#\x13;u@'
p3283
tp3284
Rp3285
sI11
g136
(g140
S'M8d\xc3\x93@u@'
p3286
tp3287
Rp3288
sI141
g136
(g140
S'\xbaM\xa7KF9u@'
p3289
tp3290
Rp3291
sI14
g136
(g140
S'\x14\x874wXGu@'
p3292
tp3293
Rp3294
sI144
g136
(g140
S'\x12\xfa\xa0\r\xbc:u@'
p3295
tp3296
Rp3297
sI17
g136
(g140
S'\x93z&\x96\xc4@u@'
p3298
tp3299
Rp3300
sI147
g136
(g140
S'\x93\xe1#\x14|Au@'
p3301
tp3302
Rp3303
sI20
g136
(g140
S'\xe1q\x88b\xccFu@'
p3304
tp3305
Rp3306
sI150
g136
(g140
S'i\x83\xb50\x8c9u@'
p3307
tp3308
Rp3309
sI23
g136
(g140
S'\x9c\x9b\x14\x88,Cu@'
p3310
tp3311
Rp3312
sI27
g136
(g140
S';\x85\xa9+\xe4Au@'
p3313
tp3314
Rp3315
sI30
g136
(g140
S'\xda\xf3-O\x82@u@'
p3316
tp3317
Rp3318
sI33
g136
(g140
S'DI\xafh\xd2Bu@'
p3319
tp3320
Rp3321
sI36
g136
(g140
S'\x08`Xbc@u@'
p3322
tp3323
Rp3324
sI39
g136
(g140
S'\xf9X\x85c{@u@'
p3325
tp3326
Rp3327
sI42
g136
(g140
S'QW\xd4e$@u@'
p3328
tp3329
Rp3330
sI45
g136
(g140
S'n\xc5\x86\x02J>u@'
p3331
tp3332
Rp3333
sI48
g136
(g140
S'\x1b\xf4\x04\x0e\xb2?u@'
p3334
tp3335
Rp3336
sI51
g136
(g140
S'\xfb\x93AX @u@'
p3337
tp3338
Rp3339
sI54
g136
(g140
S'l\xed\x13x~=u@'
p3340
tp3341
Rp3342
sI57
g136
(g140
S'l\x9e\x05\xf7d>u@'
p3343
tp3344
Rp3345
sI60
g136
(g140
S'\x81\xd5`T\xd3;u@'
p3346
tp3347
Rp3348
sI63
g136
(g140
S'\x80{\xfb \x15>u@'
p3349
tp3350
Rp3351
sI66
g136
(g140
S'\xcd\xa3\xe2%\x7f:u@'
p3352
tp3353
Rp3354
sI69
g136
(g140
S'\x88\xc9}%x>u@'
p3355
tp3356
Rp3357
sI72
g136
(g140
S'\xd7\x0cG\x8a\xdf:u@'
p3358
tp3359
Rp3360
sI75
g136
(g140
S'\n\xf6\x8a\xd0\xdb:u@'
p3361
tp3362
Rp3363
sI78
g136
(g140
S'#s\xad\xdbj:u@'
p3364
tp3365
Rp3366
sI84
g136
(g140
S'mwn\x01EBu@'
p3367
tp3368
Rp3369
sI87
g136
(g140
S'1\x9ac\x94nCu@'
p3370
tp3371
Rp3372
sI90
g136
(g140
S'o3M\xf4\xa9Au@'
p3373
tp3374
Rp3375
sI93
g136
(g140
S'\x9ce_\xd1~Au@'
p3376
tp3377
Rp3378
sI96
g136
(g140
S'X)5\xa7\xb4Bu@'
p3379
tp3380
Rp3381
sI99
g136
(g140
S'&\xf4\xd0\x00\xfbCu@'
p3382
tp3383
Rp3384
sI102
g136
(g140
S'@m\x1d\xb0T>u@'
p3385
tp3386
Rp3387
sI105
g136
(g140
S',\xaak\x14v@u@'
p3388
tp3389
Rp3390
sI108
g136
(g140
S'8/k\xe3\xbe?u@'
p3391
tp3392
Rp3393
sI111
g136
(g140
S'$\xb8\x96\xee\xed?u@'
p3394
tp3395
Rp3396
sI114
g136
(g140
S'3\xd9x\x08\xe1=u@'
p3397
tp3398
Rp3399
sI117
g136
(g140
S'\x02\xc4\xd8\xb9k@u@'
p3400
tp3401
Rp3402
sI120
g136
(g140
S'D&\x03<\xc0=u@'
p3403
tp3404
Rp3405
sI123
g136
(g140
S'\x85qmZ\xc99u@'
p3406
tp3407
Rp3408
sI126
g136
(g140
S'\x90\x995E\xd9;u@'
p3409
tp3410
Rp3411
ssS'Ei'
p3412
(dp3413
I129
F1845.0483997125168
sI132
F582.325627229243
sI135
F1775.9728609655676
sI138
F866.1339562155513
sI11
F762.108761115372
sI141
F993.5980528059205
sI14
F2017.6969499147058
sI144
F833.6968824946694
sI17
F888.7839935740593
sI147
F1591.9735822301668
sI20
F1701.4174243614489
sI150
F1134.2080403360192
sI23
F1073.4428628747667
sI27
F1119.9853364253925
sI156
F251.74137931034477
sI30
F767.3235377711886
sI33
F1377.227175650658
sI36
F881.5717712061111
sI39
F923.909233769373
sI42
F1278.9170266565882
sI45
F751.81618879174
sI48
F1053.0756305223792
sI51
F1400.463148357107
sI54
F1045.2115553891497
sI57
F1140.9124264145812
sI60
F977.0515563199518
sI63
F1158.2916754059963
sI66
F722.0802257134739
sI69
F1526.1616753980898
sI72
F950.5052118569869
sI75
F1223.137838103445
sI78
F1491.4517317282732
sI84
F982.1978078393608
sI87
F1344.5938760609158
sI90
F954.5540372515926
sI93
F1223.4935935920403
sI96
F1124.9421820161965
sI99
F1698.9665785804204
sI102
F782.4352080576963
sI105
F1263.9156753412362
sI108
F1100.796971581372
sI111
F1278.541187057608
sI114
F1061.986392919858
sI117
F1112.586570923473
sI120
F927.6820700460721
sI123
F806.8837515853004
sI126
F767.9070586890858
ssS'par_photo'
p3414
(dp3415
I129
(dp3416
VTx25
p3417
F42.75
sS'Rd'
p3418
g136
(g140
S'\xe4\x9d:\x1f\x90\x1d\xeb?'
p3419
tp3420
Rp3421
sVcRd
p3422
F0.008
sVRespT_Jm
p3423
(dp3424
Vmodel
p3425
VArrhenius
p3426
sVdeltaHa
p3427
F43.54
sVc
p3428
F17.57
ssVJm25
p3429
g136
(g140
S'\xcd%\xd3\x9e2\xcfa@'
p3430
tp3431
Rp3432
sVKo25
p3433
F278.4
sValpha_T_limit
p3434
(lp3435
I15
aI20
aI25
aI30
aI34
aI50
asVdHd
p3436
F200.0
sVa1
p3437
F0.98
sVa3
p3438
F0.98
sVa2
p3439
F0.98
sValpha
p3440
(lp3441
F0.2
aF0.2
aF0.19
aF0.19
aF0.14
aF0.12
asVRespT_Vcm
p3442
(dp3443
Vmodel
p3444
VArrhenius
p3445
sVdeltaHa
p3446
F65.33
sVc
p3447
F26.35
ssVds
p3448
F0.635
sVRespT_TPU
p3449
(dp3450
Vmodel
p3451
VArrhenius
p3452
sVdeltaHa
p3453
F53.1
sVc
p3454
F21.46
ssVRespT_Tx
p3455
(dp3456
Vmodel
p3457
VArrhenius
p3458
sVdeltaHa
p3459
F37.83
sVc
p3460
F19.02
ssVRespT_Kc
p3461
(dp3462
Vmodel
p3463
VArrhenius
p3464
sVdeltaHa
p3465
F79.43
sVc
p3466
F38.05
ssVRespT_Ko
p3467
(dp3468
Vmodel
p3469
VArrhenius
p3470
sVdeltaHa
p3471
F36.38
sVc
p3472
F20.3
ssVKc25
p3473
F404.9
sVTPU25
p3474
g136
(g140
S'\x80\xbe\xbd\xff\xc3\xa2%@'
p3475
tp3476
Rp3477
sVVcm25
p3478
g136
(g140
S'\xd7i{R:\x94P@'
p3479
tp3480
Rp3481
sVRespT_Rd
p3482
(dp3483
Vmodel
p3484
VArrhenius
p3485
sVdeltaHa
p3486
F46.39
sVc
p3487
F18.72
sssI132
(dp3488
g3417
F42.75
sg3418
g136
(g140
S'\xeb\xdeA\x1d\x95\xe7\xea?'
p3489
tp3490
Rp3491
sg3422
F0.008
sg3423
(dp3492
g3425
g3426
sg3427
F43.54
sg3428
F17.57
ssg3429
g136
(g140
S'\x11I\x08\xf8\xe6\xa7a@'
p3493
tp3494
Rp3495
sg3433
F278.4
sg3434
(lp3496
I15
aI20
aI25
aI30
aI34
aI50
asg3436
F200.0
sg3437
F0.98
sg3438
F0.98
sg3439
F0.98
sg3440
(lp3497
F0.2
aF0.2
aF0.19
aF0.19
aF0.14
aF0.12
asg3442
(dp3498
g3444
g3445
sg3446
F65.33
sg3447
F26.35
ssg3448
F0.635
sg3449
(dp3499
g3451
g3452
sg3453
F53.1
sg3454
F21.46
ssg3455
(dp3500
g3457
g3458
sg3459
F37.83
sg3460
F19.02
ssg3461
(dp3501
g3463
g3464
sg3465
F79.43
sg3466
F38.05
ssg3467
(dp3502
g3469
g3470
sg3471
F36.38
sg3472
F20.3
ssg3473
F404.9
sg3474
g136
(g140
S'\xbe12\x10\xa4p%@'
p3503
tp3504
Rp3505
sg3478
g136
(g140
S'\xfd\x00<{\x11rP@'
p3506
tp3507
Rp3508
sg3482
(dp3509
g3484
g3485
sg3486
F46.39
sg3487
F18.72
sssI135
(dp3510
g3417
F42.75
sg3418
g136
(g140
S'\n\x04\xd6 \xebc\xeb?'
p3511
tp3512
Rp3513
sg3422
F0.008
sg3423
(dp3514
g3425
g3426
sg3427
F43.54
sg3428
F17.57
ssg3429
g136
(g140
S'\xf2\xa0~\xdei\x02b@'
p3515
tp3516
Rp3517
sg3433
F278.4
sg3434
(lp3518
I15
aI20
aI25
aI30
aI34
aI50
asg3436
F200.0
sg3437
F0.98
sg3438
F0.98
sg3439
F0.98
sg3440
(lp3519
F0.2
aF0.2
aF0.19
aF0.19
aF0.14
aF0.12
asg3442
(dp3520
g3444
g3445
sg3446
F65.33
sg3447
F26.35
ssg3448
F0.635
sg3449
(dp3521
g3451
g3452
sg3453
F53.1
sg3454
F21.46
ssg3455
(dp3522
g3457
g3458
sg3459
F37.83
sg3460
F19.02
ssg3461
(dp3523
g3463
g3464
sg3465
F79.43
sg3466
F38.05
ssg3467
(dp3524
g3469
g3470
sg3471
F36.38
sg3472
F20.3
ssg3473
F404.9
sg3474
g136
(g140
S'\xed\xc1;\x81\x18\xe4%@'
p3525
tp3526
Rp3527
sg3478
g136
(g140
S'{\xc0\x7f\xe9\xbf\xc0P@'
p3528
tp3529
Rp3530
sg3482
(dp3531
g3484
g3485
sg3486
F46.39
sg3487
F18.72
sssI138
(dp3532
g3417
F42.75
sg3418
g136
(g140
S'c\xfb9\xc1"\xc9\xea?'
p3533
tp3534
Rp3535
sg3422
F0.008
sg3423
(dp3536
g3425
g3426
sg3427
F43.54
sg3428
F17.57
ssg3429
g136
(g140
S'\\fw\x01\xbd\x91a@'
p3537
tp3538
Rp3539
sg3433
F278.4
sg3434
(lp3540
I15
aI20
aI25
aI30
aI34
aI50
asg3436
F200.0
sg3437
F0.98
sg3438
F0.98
sg3439
F0.98
sg3440
(lp3541
F0.2
aF0.2
aF0.19
aF0.19
aF0.14
aF0.12
asg3442
(dp3542
g3444
g3445
sg3446
F65.33
sg3447
F26.35
ssg3448
F0.635
sg3449
(dp3543
g3451
g3452
sg3453
F53.1
sg3454
F21.46
ssg3455
(dp3544
g3457
g3458
sg3459
F37.83
sg3460
F19.02
ssg3461
(dp3545
g3463
g3464
sg3465
F79.43
sg3466
F38.05
ssg3467
(dp3546
g3469
g3470
sg3471
F36.38
sg3472
F20.3
ssg3473
F404.9
sg3474
g136
(g140
S'R\x95\x98q^T%@'
p3547
tp3548
Rp3549
sg3478
g136
(g140
S'\x01\x03\xff\x1c\xcd^P@'
p3550
tp3551
Rp3552
sg3482
(dp3553
g3484
g3485
sg3486
F46.39
sg3487
F18.72
sssI11
(dp3554
g3417
F42.75
sg3418
g136
(g140
S'Y\x99\xc0\xa4\x8c\xa7\xea?'
p3555
tp3556
Rp3557
sg3422
F0.008
sg3423
(dp3558
g3425
g3426
sg3427
F43.54
sg3428
F17.57
ssg3429
g136
(g140
S'Y.\x06\xf2Iya@'
p3559
tp3560
Rp3561
sg3433
F278.4
sg3434
(lp3562
I15
aI20
aI25
aI30
aI34
aI50
asg3436
F200.0
sg3437
F0.98
sg3438
F0.98
sg3439
F0.98
sg3440
(lp3563
F0.2
aF0.2
aF0.19
aF0.19
aF0.14
aF0.12
asg3442
(dp3564
g3444
g3445
sg3446
F65.33
sg3447
F26.35
ssg3448
F0.635
sg3449
(dp3565
g3451
g3452
sg3453
F53.1
sg3454
F21.46
ssg3455
(dp3566
g3457
g3458
sg3459
F37.83
sg3460
F19.02
ssg3461
(dp3567
g3463
g3464
sg3465
F79.43
sg3466
F38.05
ssg3467
(dp3568
g3469
g3470
sg3471
F36.38
sg3472
F20.3
ssg3473
F404.9
sg3474
g136
(g140
S"\xff'\xba{.5%@"
p3569
tp3570
Rp3571
sg3478
g136
(g140
S'\xf72\xfa\x1e\x8cIP@'
p3572
tp3573
Rp3574
sg3482
(dp3575
g3484
g3485
sg3486
F46.39
sg3487
F18.72
sssI141
(dp3576
g3417
F42.75
sg3418
g136
(g140
S'J\xbb#\\\xe6a\xeb?'
p3577
tp3578
Rp3579
sg3422
F0.008
sg3423
(dp3580
g3425
g3426
sg3427
F43.54
sg3428
F17.57
ssg3429
g136
(g140
S'\xd8\xb3\x05\xaf\xf1\x00b@'
p3581
tp3582
Rp3583
sg3433
F278.4
sg3434
(lp3584
I15
aI20
aI25
aI30
aI34
aI50
asg3436
F200.0
sg3437
F0.98
sg3438
F0.98
sg3439
F0.98
sg3440
(lp3585
F0.2
aF0.2
aF0.19
aF0.19
aF0.14
aF0.12
asg3442
(dp3586
g3444
g3445
sg3446
F65.33
sg3447
F26.35
ssg3448
F0.635
sg3449
(dp3587
g3451
g3452
sg3453
F53.1
sg3454
F21.46
ssg3455
(dp3588
g3457
g3458
sg3459
F37.83
sg3460
F19.02
ssg3461
(dp3589
g3463
g3464
sg3465
F79.43
sg3466
F38.05
ssg3467
(dp3590
g3469
g3470
sg3471
F36.38
sg3472
F20.3
ssg3473
F404.9
sg3474
g136
(g140
S'\x16\xec\x03\xa68\xe2%@'
p3591
tp3592
Rp3593
sg3478
g136
(g140
S'r\xee\x06\xe5x\xbfP@'
p3594
tp3595
Rp3596
sg3482
(dp3597
g3484
g3485
sg3486
F46.39
sg3487
F18.72
sssI14
(dp3598
g3417
F42.75
sg3418
g136
(g140
S'\xb5\xf4\x1f\xba\x1ba\xeb?'
p3599
tp3600
Rp3601
sg3422
F0.008
sg3423
(dp3602
g3425
g3426
sg3427
F43.54
sg3428
F17.57
ssg3429
g136
(g140
S'\x80\x86\xf0,^\x00b@'
p3603
tp3604
Rp3605
sg3433
F278.4
sg3434
(lp3606
I15
aI20
aI25
aI30
aI34
aI50
asg3436
F200.0
sg3437
F0.98
sg3438
F0.98
sg3439
F0.98
sg3440
(lp3607
F0.2
aF0.2
aF0.19
aF0.19
aF0.14
aF0.12
asg3442
(dp3608
g3444
g3445
sg3446
F65.33
sg3447
F26.35
ssg3448
F0.635
sg3449
(dp3609
g3451
g3452
sg3453
F53.1
sg3454
F21.46
ssg3455
(dp3610
g3457
g3458
sg3459
F37.83
sg3460
F19.02
ssg3461
(dp3611
g3463
g3464
sg3465
F79.43
sg3466
F38.05
ssg3467
(dp3612
g3469
g3470
sg3471
F36.38
sg3472
F20.3
ssg3473
F404.9
sg3474
g136
(g140
S'\x1e\x8fI}|\xe1%@'
p3613
tp3614
Rp3615
sg3478
g136
(g140
S'\xc7\x8a\x80\xaa\xf8\xbeP@'
p3616
tp3617
Rp3618
sg3482
(dp3619
g3484
g3485
sg3486
F46.39
sg3487
F18.72
sssI144
(dp3620
g3417
F42.75
sg3418
g136
(g140
S'\xa2wv\xde\x86\xa7\xea?'
p3621
tp3622
Rp3623
sg3422
F0.008
sg3423
(dp3624
g3425
g3426
sg3427
F43.54
sg3428
F17.57
ssg3429
g136
(g140
S'\xf3[\xe4\xbdEya@'
p3625
tp3626
Rp3627
sg3433
F278.4
sg3434
(lp3628
I15
aI20
aI25
aI30
aI34
aI50
asg3436
F200.0
sg3437
F0.98
sg3438
F0.98
sg3439
F0.98
sg3440
(lp3629
F0.2
aF0.2
aF0.19
aF0.19
aF0.14
aF0.12
asg3442
(dp3630
g3444
g3445
sg3446
F65.33
sg3447
F26.35
ssg3448
F0.635
sg3449
(dp3631
g3451
g3452
sg3453
F53.1
sg3454
F21.46
ssg3455
(dp3632
g3457
g3458
sg3459
F37.83
sg3460
F19.02
ssg3461
(dp3633
g3463
g3464
sg3465
F79.43
sg3466
F38.05
ssg3467
(dp3634
g3469
g3470
sg3471
F36.38
sg3472
F20.3
ssg3473
F404.9
sg3474
g136
(g140
S'\xfa\x9a\x07\x1f)5%@'
p3635
tp3636
Rp3637
sg3478
g136
(g140
S'\xa1I\x7fw\x88IP@'
p3638
tp3639
Rp3640
sg3482
(dp3641
g3484
g3485
sg3486
F46.39
sg3487
F18.72
sssI17
(dp3642
g3417
F42.75
sg3418
g136
(g140
S'\xed\x1dT\xb3\x0f\xd1\xea?'
p3643
tp3644
Rp3645
sg3422
F0.008
sg3423
(dp3646
g3425
g3426
sg3427
F43.54
sg3428
F17.57
ssg3429
g136
(g140
S'\x13\xff\xfd\xfd\x81\x97a@'
p3647
tp3648
Rp3649
sg3433
F278.4
sg3434
(lp3650
I15
aI20
aI25
aI30
aI34
aI50
asg3436
F200.0
sg3437
F0.98
sg3438
F0.98
sg3439
F0.98
sg3440
(lp3651
F0.2
aF0.2
aF0.19
aF0.19
aF0.14
aF0.12
asg3442
(dp3652
g3444
g3445
sg3446
F65.33
sg3447
F26.35
ssg3448
F0.635
sg3449
(dp3653
g3451
g3452
sg3453
F53.1
sg3454
F21.46
ssg3455
(dp3654
g3457
g3458
sg3459
F37.83
sg3460
F19.02
ssg3461
(dp3655
g3463
g3464
sg3465
F79.43
sg3466
F38.05
ssg3467
(dp3656
g3469
g3470
sg3471
F36.38
sg3472
F20.3
ssg3473
F404.9
sg3474
g136
(g140
S'\x88\xfe\xf9v\xba[%@'
p3657
tp3658
Rp3659
sg3478
g136
(g140
S'\xdc\x8c3\x0e\xd1cP@'
p3660
tp3661
Rp3662
sg3482
(dp3663
g3484
g3485
sg3486
F46.39
sg3487
F18.72
sssI147
(dp3664
g3417
F42.75
sg3418
g136
(g140
S'\x1d\x03^P[\x1d\xeb?'
p3665
tp3666
Rp3667
sg3422
F0.008
sg3423
(dp3668
g3425
g3426
sg3427
F43.54
sg3428
F17.57
ssg3429
g136
(g140
S'!\xb3\xaa-\x0c\xcfa@'
p3669
tp3670
Rp3671
sg3433
F278.4
sg3434
(lp3672
I15
aI20
aI25
aI30
aI34
aI50
asg3436
F200.0
sg3437
F0.98
sg3438
F0.98
sg3439
F0.98
sg3440
(lp3673
F0.2
aF0.2
aF0.19
aF0.19
aF0.14
aF0.12
asg3442
(dp3674
g3444
g3445
sg3446
F65.33
sg3447
F26.35
ssg3448
F0.635
sg3449
(dp3675
g3451
g3452
sg3453
F53.1
sg3454
F21.46
ssg3455
(dp3676
g3457
g3458
sg3459
F37.83
sg3460
F19.02
ssg3461
(dp3677
g3463
g3464
sg3465
F79.43
sg3466
F38.05
ssg3467
(dp3678
g3469
g3470
sg3471
F36.38
sg3472
F20.3
ssg3473
F404.9
sg3474
g136
(g140
S'\xc7.\x83\xf6\x92\xa2%@'
p3679
tp3680
Rp3681
sg3478
g136
(g140
S'\xe5\xcf\x93\xe7\x18\x94P@'
p3682
tp3683
Rp3684
sg3482
(dp3685
g3484
g3485
sg3486
F46.39
sg3487
F18.72
sssI20
(dp3686
g3417
F42.75
sg3418
g136
(g140
S'q\xdb\x9f\xc8L7\xeb?'
p3687
tp3688
Rp3689
sg3422
F0.008
sg3423
(dp3690
g3425
g3426
sg3427
F43.54
sg3428
F17.57
ssg3429
g136
(g140
S'\xd2\xa1\xfe\xe2\xee\xe1a@'
p3691
tp3692
Rp3693
sg3433
F278.4
sg3434
(lp3694
I15
aI20
aI25
aI30
aI34
aI50
asg3436
F200.0
sg3437
F0.98
sg3438
F0.98
sg3439
F0.98
sg3440
(lp3695
F0.2
aF0.2
aF0.19
aF0.19
aF0.14
aF0.12
asg3442
(dp3696
g3444
g3445
sg3446
F65.33
sg3447
F26.35
ssg3448
F0.635
sg3449
(dp3697
g3451
g3452
sg3453
F53.1
sg3454
F21.46
ssg3455
(dp3698
g3457
g3458
sg3459
F37.83
sg3460
F19.02
ssg3461
(dp3699
g3463
g3464
sg3465
F79.43
sg3466
F38.05
ssg3467
(dp3700
g3469
g3470
sg3471
F36.38
sg3472
F20.3
ssg3473
F404.9
sg3474
g136
(g140
S'\x16S\xc0\n\xaa\xba%@'
p3701
tp3702
Rp3703
sg3478
g136
(g140
S'\xcaz\xad\xb5\x83\xa4P@'
p3704
tp3705
Rp3706
sg3482
(dp3707
g3484
g3485
sg3486
F46.39
sg3487
F18.72
sssI150
(dp3708
g3417
F42.75
sg3418
g136
(g140
S'h"\xda\x05~M\xeb?'
p3709
tp3710
Rp3711
sg3422
F0.008
sg3423
(dp3712
g3425
g3426
sg3427
F43.54
sg3428
F17.57
ssg3429
g136
(g140
S'2\x8e~\x96\x16\xf2a@'
p3713
tp3714
Rp3715
sg3433
F278.4
sg3434
(lp3716
I15
aI20
aI25
aI30
aI34
aI50
asg3436
F200.0
sg3437
F0.98
sg3438
F0.98
sg3439
F0.98
sg3440
(lp3717
F0.2
aF0.2
aF0.19
aF0.19
aF0.14
aF0.12
asg3442
(dp3718
g3444
g3445
sg3446
F65.33
sg3447
F26.35
ssg3448
F0.635
sg3449
(dp3719
g3451
g3452
sg3453
F53.1
sg3454
F21.46
ssg3455
(dp3720
g3457
g3458
sg3459
F37.83
sg3460
F19.02
ssg3461
(dp3721
g3463
g3464
sg3465
F79.43
sg3466
F38.05
ssg3467
(dp3722
g3469
g3470
sg3471
F36.38
sg3472
F20.3
ssg3473
F404.9
sg3474
g136
(g140
S'ipvzE\xcf%@'
p3723
tp3724
Rp3725
sg3478
g136
(g140
S'\xb3[l\xde\x8e\xb2P@'
p3726
tp3727
Rp3728
sg3482
(dp3729
g3484
g3485
sg3486
F46.39
sg3487
F18.72
sssI23
(dp3730
g3417
F42.75
sg3418
g136
(g140
S'f\xce\xc4AF\x9b\xea?'
p3731
tp3732
Rp3733
sg3422
F0.008
sg3423
(dp3734
g3425
g3426
sg3427
F43.54
sg3428
F17.57
ssg3429
g136
(g140
S'\xafP\xd3kZpa@'
p3735
tp3736
Rp3737
sg3433
F278.4
sg3434
(lp3738
I15
aI20
aI25
aI30
aI34
aI50
asg3436
F200.0
sg3437
F0.98
sg3438
F0.98
sg3439
F0.98
sg3440
(lp3739
F0.2
aF0.2
aF0.19
aF0.19
aF0.14
aF0.12
asg3442
(dp3740
g3444
g3445
sg3446
F65.33
sg3447
F26.35
ssg3448
F0.635
sg3449
(dp3741
g3451
g3452
sg3453
F53.1
sg3454
F21.46
ssg3455
(dp3742
g3457
g3458
sg3459
F37.83
sg3460
F19.02
ssg3461
(dp3743
g3463
g3464
sg3465
F79.43
sg3466
F38.05
ssg3467
(dp3744
g3469
g3470
sg3471
F36.38
sg3472
F20.3
ssg3473
F404.9
sg3474
g136
(g140
S'\xb04\x87\x8d\xc8)%@'
p3745
tp3746
Rp3747
sg3478
g136
(g140
S'\x89\xdcV\x94\xc7AP@'
p3748
tp3749
Rp3750
sg3482
(dp3751
g3484
g3485
sg3486
F46.39
sg3487
F18.72
sssI27
(dp3752
g3417
F42.75
sg3418
g136
(g140
S'\xdaE\x08\xfc\xef\xc2\xea?'
p3753
tp3754
Rp3755
sg3422
F0.008
sg3423
(dp3756
g3425
g3426
sg3427
F43.54
sg3428
F17.57
ssg3429
g136
(g140
S'm$}\xe79\x8da@'
p3757
tp3758
Rp3759
sg3433
F278.4
sg3434
(lp3760
I15
aI20
aI25
aI30
aI34
aI50
asg3436
F200.0
sg3437
F0.98
sg3438
F0.98
sg3439
F0.98
sg3440
(lp3761
F0.2
aF0.2
aF0.19
aF0.19
aF0.14
aF0.12
asg3442
(dp3762
g3444
g3445
sg3446
F65.33
sg3447
F26.35
ssg3448
F0.635
sg3449
(dp3763
g3451
g3452
sg3453
F53.1
sg3454
F21.46
ssg3455
(dp3764
g3457
g3458
sg3459
F37.83
sg3460
F19.02
ssg3461
(dp3765
g3463
g3464
sg3465
F79.43
sg3466
F38.05
ssg3467
(dp3766
g3469
g3470
sg3471
F36.38
sg3472
F20.3
ssg3473
F404.9
sg3474
g136
(g140
S'.H\xa1\x03\x9dN%@'
p3767
tp3768
Rp3769
sg3478
g136
(g140
S'!\x8e5\xfc\xe0ZP@'
p3770
tp3771
Rp3772
sg3482
(dp3773
g3484
g3485
sg3486
F46.39
sg3487
F18.72
sssI30
(dp3774
g3417
F42.75
sg3418
g136
(g140
S'\x12pJ(\xbct\xea?'
p3775
tp3776
Rp3777
sg3422
F0.008
sg3423
(dp3778
g3425
g3426
sg3427
F43.54
sg3428
F17.57
ssg3429
g136
(g140
S'\x96\x05\xb5QLTa@'
p3779
tp3780
Rp3781
sg3433
F278.4
sg3434
(lp3782
I15
aI20
aI25
aI30
aI34
aI50
asg3436
F200.0
sg3437
F0.98
sg3438
F0.98
sg3439
F0.98
sg3440
(lp3783
F0.2
aF0.2
aF0.19
aF0.19
aF0.14
aF0.12
asg3442
(dp3784
g3444
g3445
sg3446
F65.33
sg3447
F26.35
ssg3448
F0.635
sg3449
(dp3785
g3451
g3452
sg3453
F53.1
sg3454
F21.46
ssg3455
(dp3786
g3457
g3458
sg3459
F37.83
sg3460
F19.02
ssg3461
(dp3787
g3463
g3464
sg3465
F79.43
sg3466
F38.05
ssg3467
(dp3788
g3469
g3470
sg3471
F36.38
sg3472
F20.3
ssg3473
F404.9
sg3474
g136
(g140
S'=&\xba,\xff\x05%@'
p3789
tp3790
Rp3791
sg3478
g136
(g140
S'\xd8l70d)P@'
p3792
tp3793
Rp3794
sg3482
(dp3795
g3484
g3485
sg3486
F46.39
sg3487
F18.72
sssI33
(dp3796
g3417
F42.75
sg3418
g136
(g140
S'\xe1\x99\xcar\xde\r\xeb?'
p3797
tp3798
Rp3799
sg3422
F0.008
sg3423
(dp3800
g3425
g3426
sg3427
F43.54
sg3428
F17.57
ssg3429
g136
(g140
S'\xe1\x9a\xa7\xec\xc5\xc3a@'
p3801
tp3802
Rp3803
sg3433
F278.4
sg3434
(lp3804
I15
aI20
aI25
aI30
aI34
aI50
asg3436
F200.0
sg3437
F0.98
sg3438
F0.98
sg3439
F0.98
sg3440
(lp3805
F0.2
aF0.2
aF0.19
aF0.19
aF0.14
aF0.12
asg3442
(dp3806
g3444
g3445
sg3446
F65.33
sg3447
F26.35
ssg3448
F0.635
sg3449
(dp3807
g3451
g3452
sg3453
F53.1
sg3454
F21.46
ssg3455
(dp3808
g3457
g3458
sg3459
F37.83
sg3460
F19.02
ssg3461
(dp3809
g3463
g3464
sg3465
F79.43
sg3466
F38.05
ssg3467
(dp3810
g3469
g3470
sg3471
F36.38
sg3472
F20.3
ssg3473
F404.9
sg3474
g136
(g140
S'\xc6\xbaUM1\x94%@'
p3811
tp3812
Rp3813
sg3478
g136
(g140
S'M\x87\\\xe3K\x8aP@'
p3814
tp3815
Rp3816
sg3482
(dp3817
g3484
g3485
sg3486
F46.39
sg3487
F18.72
sssI36
(dp3818
g3417
F42.75
sg3418
g136
(g140
S'\x07(\x94D3y\xea?'
p3819
tp3820
Rp3821
sg3422
F0.008
sg3423
(dp3822
g3425
g3426
sg3427
F43.54
sg3428
F17.57
ssg3429
g136
(g140
S'\x00\x8b\x83t\x8cWa@'
p3823
tp3824
Rp3825
sg3433
F278.4
sg3434
(lp3826
I15
aI20
aI25
aI30
aI34
aI50
asg3436
F200.0
sg3437
F0.98
sg3438
F0.98
sg3439
F0.98
sg3440
(lp3827
F0.2
aF0.2
aF0.19
aF0.19
aF0.14
aF0.12
asg3442
(dp3828
g3444
g3445
sg3446
F65.33
sg3447
F26.35
ssg3448
F0.635
sg3449
(dp3829
g3451
g3452
sg3453
F53.1
sg3454
F21.46
ssg3455
(dp3830
g3457
g3458
sg3459
F37.83
sg3460
F19.02
ssg3461
(dp3831
g3463
g3464
sg3465
F79.43
sg3466
F38.05
ssg3467
(dp3832
g3469
g3470
sg3471
F36.38
sg3472
F20.3
ssg3473
F404.9
sg3474
g136
(g140
S'\x0eQl\xa2$\n%@'
p3833
tp3834
Rp3835
sg3478
g136
(g140
S'A\x13\x1e\x907,P@'
p3836
tp3837
Rp3838
sg3482
(dp3839
g3484
g3485
sg3486
F46.39
sg3487
F18.72
sssI39
(dp3840
g3417
F42.75
sg3418
g136
(g140
S'\x7f2\xba\x83\xaa\x8a\xea?'
p3841
tp3842
Rp3843
sg3422
F0.008
sg3423
(dp3844
g3425
g3426
sg3427
F43.54
sg3428
F17.57
ssg3429
g136
(g140
S'\xc3\xe0DUCda@'
p3845
tp3846
Rp3847
sg3433
F278.4
sg3434
(lp3848
I15
aI20
aI25
aI30
aI34
aI50
asg3436
F200.0
sg3437
F0.98
sg3438
F0.98
sg3439
F0.98
sg3440
(lp3849
F0.2
aF0.2
aF0.19
aF0.19
aF0.14
aF0.12
asg3442
(dp3850
g3444
g3445
sg3446
F65.33
sg3447
F26.35
ssg3448
F0.635
sg3449
(dp3851
g3451
g3452
sg3453
F53.1
sg3454
F21.46
ssg3455
(dp3852
g3457
g3458
sg3459
F37.83
sg3460
F19.02
ssg3461
(dp3853
g3463
g3464
sg3465
F79.43
sg3466
F38.05
ssg3467
(dp3854
g3469
g3470
sg3471
F36.38
sg3472
F20.3
ssg3473
F404.9
sg3474
g136
(g140
S'\x10\xed\xa1\x81\\\x1a%@'
p3855
tp3856
Rp3857
sg3478
g136
(g140
S'\xe1%\x14\x06E7P@'
p3858
tp3859
Rp3860
sg3482
(dp3861
g3484
g3485
sg3486
F46.39
sg3487
F18.72
sssI42
(dp3862
g3417
F42.75
sg3418
g136
(g140
S'\x14\x14\x98\xc2\xd3$\xeb?'
p3863
tp3864
Rp3865
sg3422
F0.008
sg3423
(dp3866
g3425
g3426
sg3427
F43.54
sg3428
F17.57
ssg3429
g136
(g140
S'\xc4\x1c\xad[|\xd4a@'
p3867
tp3868
Rp3869
sg3433
F278.4
sg3434
(lp3870
I15
aI20
aI25
aI30
aI34
aI50
asg3436
F200.0
sg3437
F0.98
sg3438
F0.98
sg3439
F0.98
sg3440
(lp3871
F0.2
aF0.2
aF0.19
aF0.19
aF0.14
aF0.12
asg3442
(dp3872
g3444
g3445
sg3446
F65.33
sg3447
F26.35
ssg3448
F0.635
sg3449
(dp3873
g3451
g3452
sg3453
F53.1
sg3454
F21.46
ssg3455
(dp3874
g3457
g3458
sg3459
F37.83
sg3460
F19.02
ssg3461
(dp3875
g3463
g3464
sg3465
F79.43
sg3466
F38.05
ssg3467
(dp3876
g3469
g3470
sg3471
F36.38
sg3472
F20.3
ssg3473
F404.9
sg3474
g136
(g140
S'\x1bcK\xce\x82\xa9%@'
p3877
tp3878
Rp3879
sg3478
g136
(g140
S'\xa1\x8e\xdc\x1f\xd3\x98P@'
p3880
tp3881
Rp3882
sg3482
(dp3883
g3484
g3485
sg3486
F46.39
sg3487
F18.72
sssI45
(dp3884
g3417
F42.75
sg3418
g136
(g140
S'PU\xb4\xd0T\x8d\xea?'
p3885
tp3886
Rp3887
sg3422
F0.008
sg3423
(dp3888
g3425
g3426
sg3427
F43.54
sg3428
F17.57
ssg3429
g136
(g140
S'\x1ce\xe0\x044fa@'
p3889
tp3890
Rp3891
sg3433
F278.4
sg3434
(lp3892
I15
aI20
aI25
aI30
aI34
aI50
asg3436
F200.0
sg3437
F0.98
sg3438
F0.98
sg3439
F0.98
sg3440
(lp3893
F0.2
aF0.2
aF0.19
aF0.19
aF0.14
aF0.12
asg3442
(dp3894
g3444
g3445
sg3446
F65.33
sg3447
F26.35
ssg3448
F0.635
sg3449
(dp3895
g3451
g3452
sg3453
F53.1
sg3454
F21.46
ssg3455
(dp3896
g3457
g3458
sg3459
F37.83
sg3460
F19.02
ssg3461
(dp3897
g3463
g3464
sg3465
F79.43
sg3466
F38.05
ssg3467
(dp3898
g3469
g3470
sg3471
F36.38
sg3472
F20.3
ssg3473
F404.9
sg3474
g136
(g140
S'e\rA\x12\xd6\x1c%@'
p3899
tp3900
Rp3901
sg3478
g136
(g140
S'\xe9o\xca\xca\xf48P@'
p3902
tp3903
Rp3904
sg3482
(dp3905
g3484
g3485
sg3486
F46.39
sg3487
F18.72
sssI48
(dp3906
g3417
F42.75
sg3418
g136
(g140
S'\x81[F\xba\x1e\xd0\xea?'
p3907
tp3908
Rp3909
sg3422
F0.008
sg3423
(dp3910
g3425
g3426
sg3427
F43.54
sg3428
F17.57
ssg3429
g136
(g140
S'\xc21\xfa\x92\xd2\x96a@'
p3911
tp3912
Rp3913
sg3433
F278.4
sg3434
(lp3914
I15
aI20
aI25
aI30
aI34
aI50
asg3436
F200.0
sg3437
F0.98
sg3438
F0.98
sg3439
F0.98
sg3440
(lp3915
F0.2
aF0.2
aF0.19
aF0.19
aF0.14
aF0.12
asg3442
(dp3916
g3444
g3445
sg3446
F65.33
sg3447
F26.35
ssg3448
F0.635
sg3449
(dp3917
g3451
g3452
sg3453
F53.1
sg3454
F21.46
ssg3455
(dp3918
g3457
g3458
sg3459
F37.83
sg3460
F19.02
ssg3461
(dp3919
g3463
g3464
sg3465
F79.43
sg3466
F38.05
ssg3467
(dp3920
g3469
g3470
sg3471
F36.38
sg3472
F20.3
ssg3473
F404.9
sg3474
g136
(g140
S'm\xa5H\xb4\xdaZ%@'
p3921
tp3922
Rp3923
sg3478
g136
(g140
S'\xd4\xd7\x98\x908cP@'
p3924
tp3925
Rp3926
sg3482
(dp3927
g3484
g3485
sg3486
F46.39
sg3487
F18.72
sssI51
(dp3928
g3417
F42.75
sg3418
g136
(g140
S'\xea\xb8\x8f\x8d\xb6L\xeb?'
p3929
tp3930
Rp3931
sg3422
F0.008
sg3423
(dp3932
g3425
g3426
sg3427
F43.54
sg3428
F17.57
ssg3429
g136
(g140
S'f>\xdba\x85\xf1a@'
p3933
tp3934
Rp3935
sg3433
F278.4
sg3434
(lp3936
I15
aI20
aI25
aI30
aI34
aI50
asg3436
F200.0
sg3437
F0.98
sg3438
F0.98
sg3439
F0.98
sg3440
(lp3937
F0.2
aF0.2
aF0.19
aF0.19
aF0.14
aF0.12
asg3442
(dp3938
g3444
g3445
sg3446
F65.33
sg3447
F26.35
ssg3448
F0.635
sg3449
(dp3939
g3451
g3452
sg3453
F53.1
sg3454
F21.46
ssg3455
(dp3940
g3457
g3458
sg3459
F37.83
sg3460
F19.02
ssg3461
(dp3941
g3463
g3464
sg3465
F79.43
sg3466
F38.05
ssg3467
(dp3942
g3469
g3470
sg3471
F36.38
sg3472
F20.3
ssg3473
F404.9
sg3474
g136
(g140
S't\x0e\x9fA\x8c\xce%@'
p3943
tp3944
Rp3945
sg3478
g136
(g140
S'\xf1DM\xa4\x10\xb2P@'
p3946
tp3947
Rp3948
sg3482
(dp3949
g3484
g3485
sg3486
F46.39
sg3487
F18.72
sssI54
(dp3950
g3417
F42.75
sg3418
g136
(g140
S'i\xa7\xed\xfb\xa2\xf3\xea?'
p3951
tp3952
Rp3953
sg3422
F0.008
sg3423
(dp3954
g3425
g3426
sg3427
F43.54
sg3428
F17.57
ssg3429
g136
(g140
S'\xcd\xc3\xe9Y\xad\xb0a@'
p3955
tp3956
Rp3957
sg3433
F278.4
sg3434
(lp3958
I15
aI20
aI25
aI30
aI34
aI50
asg3436
F200.0
sg3437
F0.98
sg3438
F0.98
sg3439
F0.98
sg3440
(lp3959
F0.2
aF0.2
aF0.19
aF0.19
aF0.14
aF0.12
asg3442
(dp3960
g3444
g3445
sg3446
F65.33
sg3447
F26.35
ssg3448
F0.635
sg3449
(dp3961
g3451
g3452
sg3453
F53.1
sg3454
F21.46
ssg3455
(dp3962
g3457
g3458
sg3459
F37.83
sg3460
F19.02
ssg3461
(dp3963
g3463
g3464
sg3465
F79.43
sg3466
F38.05
ssg3467
(dp3964
g3469
g3470
sg3471
F36.38
sg3472
F20.3
ssg3473
F404.9
sg3474
g136
(g140
S'|\x90\x88\x83\xd5{%@'
p3965
tp3966
Rp3967
sg3478
g136
(g140
S'\xdd\xb5$B\xb2yP@'
p3968
tp3969
Rp3970
sg3482
(dp3971
g3484
g3485
sg3486
F46.39
sg3487
F18.72
sssI57
(dp3972
g3417
F42.75
sg3418
g136
(g140
S'K\x88hnw\xfd\xea?'
p3973
tp3974
Rp3975
sg3422
F0.008
sg3423
(dp3976
g3425
g3426
sg3427
F43.54
sg3428
F17.57
ssg3429
g136
(g140
S'\x137\xd27\xd5\xb7a@'
p3977
tp3978
Rp3979
sg3433
F278.4
sg3434
(lp3980
I15
aI20
aI25
aI30
aI34
aI50
asg3436
F200.0
sg3437
F0.98
sg3438
F0.98
sg3439
F0.98
sg3440
(lp3981
F0.2
aF0.2
aF0.19
aF0.19
aF0.14
aF0.12
asg3442
(dp3982
g3444
g3445
sg3446
F65.33
sg3447
F26.35
ssg3448
F0.635
sg3449
(dp3983
g3451
g3452
sg3453
F53.1
sg3454
F21.46
ssg3455
(dp3984
g3457
g3458
sg3459
F37.83
sg3460
F19.02
ssg3461
(dp3985
g3463
g3464
sg3465
F79.43
sg3466
F38.05
ssg3467
(dp3986
g3469
g3470
sg3471
F36.38
sg3472
F20.3
ssg3473
F404.9
sg3474
g136
(g140
S'r\xaa\xfa6\xf6\x84%@'
p3987
tp3988
Rp3989
sg3478
g136
(g140
S',x\x96\xb2\xea\x7fP@'
p3990
tp3991
Rp3992
sg3482
(dp3993
g3484
g3485
sg3486
F46.39
sg3487
F18.72
sssI60
(dp3994
g3417
F42.75
sg3418
g136
(g140
S']\xb7$w4\x02\xeb?'
p3995
tp3996
Rp3997
sg3422
F0.008
sg3423
(dp3998
g3425
g3426
sg3427
F43.54
sg3428
F17.57
ssg3429
g136
(g140
S'W\xebdAH\xbba@'
p3999
tp4000
Rp4001
sg3433
F278.4
sg3434
(lp4002
I15
aI20
aI25
aI30
aI34
aI50
asg3436
F200.0
sg3437
F0.98
sg3438
F0.98
sg3439
F0.98
sg3440
(lp4003
F0.2
aF0.2
aF0.19
aF0.19
aF0.14
aF0.12
asg3442
(dp4004
g3444
g3445
sg3446
F65.33
sg3447
F26.35
ssg3448
F0.635
sg3449
(dp4005
g3451
g3452
sg3453
F53.1
sg3454
F21.46
ssg3455
(dp4006
g3457
g3458
sg3459
F37.83
sg3460
F19.02
ssg3461
(dp4007
g3463
g3464
sg3465
F79.43
sg3466
F38.05
ssg3467
(dp4008
g3469
g3470
sg3471
F36.38
sg3472
F20.3
ssg3473
F404.9
sg3474
g136
(g140
S"'\xd6\x84\x9a\\\x89%@"
p4009
tp4010
Rp4011
sg3478
g136
(g140
S'\xf5\x8d\x1dR\xea\x82P@'
p4012
tp4013
Rp4014
sg3482
(dp4015
g3484
g3485
sg3486
F46.39
sg3487
F18.72
sssI63
(dp4016
g3417
F42.75
sg3418
g136
(g140
S'\x17F\x0c\x96\xfb\xf6\xea?'
p4017
tp4018
Rp4019
sg3422
F0.008
sg3423
(dp4020
g3425
g3426
sg3427
F43.54
sg3428
F17.57
ssg3429
g136
(g140
S't\xe9\xd1\xeb\x1c\xb3a@'
p4021
tp4022
Rp4023
sg3433
F278.4
sg3434
(lp4024
I15
aI20
aI25
aI30
aI34
aI50
asg3436
F200.0
sg3437
F0.98
sg3438
F0.98
sg3439
F0.98
sg3440
(lp4025
F0.2
aF0.2
aF0.19
aF0.19
aF0.14
aF0.12
asg3442
(dp4026
g3444
g3445
sg3446
F65.33
sg3447
F26.35
ssg3448
F0.635
sg3449
(dp4027
g3451
g3452
sg3453
F53.1
sg3454
F21.46
ssg3455
(dp4028
g3457
g3458
sg3459
F37.83
sg3460
F19.02
ssg3461
(dp4029
g3463
g3464
sg3465
F79.43
sg3466
F38.05
ssg3467
(dp4030
g3469
g3470
sg3471
F36.38
sg3472
F20.3
ssg3473
F404.9
sg3474
g136
(g140
S'\x1d\xb6\x12\xee\xf0~%@'
p4031
tp4032
Rp4033
sg3478
g136
(g140
S'G\x16\xacS\xd0{P@'
p4034
tp4035
Rp4036
sg3482
(dp4037
g3484
g3485
sg3486
F46.39
sg3487
F18.72
sssI66
(dp4038
g3417
F42.75
sg3418
g136
(g140
S'\xbc\xb3\xb4\xdbI\xc7\xea?'
p4039
tp4040
Rp4041
sg3422
F0.008
sg3423
(dp4042
g3425
g3426
sg3427
F43.54
sg3428
F17.57
ssg3429
g136
(g140
S'jN\xd0\xc1d\x90a@'
p4043
tp4044
Rp4045
sg3433
F278.4
sg3434
(lp4046
I15
aI20
aI25
aI30
aI34
aI50
asg3436
F200.0
sg3437
F0.98
sg3438
F0.98
sg3439
F0.98
sg3440
(lp4047
F0.2
aF0.2
aF0.19
aF0.19
aF0.14
aF0.12
asg3442
(dp4048
g3444
g3445
sg3446
F65.33
sg3447
F26.35
ssg3448
F0.635
sg3449
(dp4049
g3451
g3452
sg3453
F53.1
sg3454
F21.46
ssg3455
(dp4050
g3457
g3458
sg3459
F37.83
sg3460
F19.02
ssg3461
(dp4051
g3463
g3464
sg3465
F79.43
sg3466
F38.05
ssg3467
(dp4052
g3469
g3470
sg3471
F36.38
sg3472
F20.3
ssg3473
F404.9
sg3474
g136
(g140
S'6\xaeSS\xa7R%@'
p4053
tp4054
Rp4055
sg3478
g136
(g140
S'\xa9\xab\xc0\xdb\xa1]P@'
p4056
tp4057
Rp4058
sg3482
(dp4059
g3484
g3485
sg3486
F46.39
sg3487
F18.72
sssI69
(dp4060
g3417
F42.75
sg3418
g136
(g140
S'C\xd93I(}\xeb?'
p4061
tp4062
Rp4063
sg3422
F0.008
sg3423
(dp4064
g3425
g3426
sg3427
F43.54
sg3428
F17.57
ssg3429
g136
(g140
S'\x858aQ\xc9\x14b@'
p4065
tp4066
Rp4067
sg3433
F278.4
sg3434
(lp4068
I15
aI20
aI25
aI30
aI34
aI50
asg3436
F200.0
sg3437
F0.98
sg3438
F0.98
sg3439
F0.98
sg3440
(lp4069
F0.2
aF0.2
aF0.19
aF0.19
aF0.14
aF0.12
asg3442
(dp4070
g3444
g3445
sg3446
F65.33
sg3447
F26.35
ssg3448
F0.635
sg3449
(dp4071
g3451
g3452
sg3453
F53.1
sg3454
F21.46
ssg3455
(dp4072
g3457
g3458
sg3459
F37.83
sg3460
F19.02
ssg3461
(dp4073
g3463
g3464
sg3465
F79.43
sg3466
F38.05
ssg3467
(dp4074
g3469
g3470
sg3471
F36.38
sg3472
F20.3
ssg3473
F404.9
sg3474
g136
(g140
S'\xa2u\xb7&\x88\xfb%@'
p4075
tp4076
Rp4077
sg3478
g136
(g140
S'i!\x0b\x9d\xb8\xd0P@'
p4078
tp4079
Rp4080
sg3482
(dp4081
g3484
g3485
sg3486
F46.39
sg3487
F18.72
sssI72
(dp4082
g3417
F42.75
sg3418
g136
(g140
S'x\x03t\xedB\xd8\xea?'
p4083
tp4084
Rp4085
sg3422
F0.008
sg3423
(dp4086
g3425
g3426
sg3427
F43.54
sg3428
F17.57
ssg3429
g136
(g140
S'\x87\xc9\x84\xc8\xbf\x9ca@'
p4087
tp4088
Rp4089
sg3433
F278.4
sg3434
(lp4090
I15
aI20
aI25
aI30
aI34
aI50
asg3436
F200.0
sg3437
F0.98
sg3438
F0.98
sg3439
F0.98
sg3440
(lp4091
F0.2
aF0.2
aF0.19
aF0.19
aF0.14
aF0.12
asg3442
(dp4092
g3444
g3445
sg3446
F65.33
sg3447
F26.35
ssg3448
F0.635
sg3449
(dp4093
g3451
g3452
sg3453
F53.1
sg3454
F21.46
ssg3455
(dp4094
g3457
g3458
sg3459
F37.83
sg3460
F19.02
ssg3461
(dp4095
g3463
g3464
sg3465
F79.43
sg3466
F38.05
ssg3467
(dp4096
g3469
g3470
sg3471
F36.38
sg3472
F20.3
ssg3473
F404.9
sg3474
g136
(g140
S'e\xc1`\x08jb%@'
p4097
tp4098
Rp4099
sg3478
g136
(g140
S'\x1e\xbc\xfbx_hP@'
p4100
tp4101
Rp4102
sg3482
(dp4103
g3484
g3485
sg3486
F46.39
sg3487
F18.72
sssI75
(dp4104
g3417
F42.75
sg3418
g136
(g140
S'\x10\xdan\xa6\xcf?\xeb?'
p4105
tp4106
Rp4107
sg3422
F0.008
sg3423
(dp4108
g3425
g3426
sg3427
F43.54
sg3428
F17.57
ssg3429
g136
(g140
S',\xacQ\x02!\xe8a@'
p4109
tp4110
Rp4111
sg3433
F278.4
sg3434
(lp4112
I15
aI20
aI25
aI30
aI34
aI50
asg3436
F200.0
sg3437
F0.98
sg3438
F0.98
sg3439
F0.98
sg3440
(lp4113
F0.2
aF0.2
aF0.19
aF0.19
aF0.14
aF0.12
asg3442
(dp4114
g3444
g3445
sg3446
F65.33
sg3447
F26.35
ssg3448
F0.635
sg3449
(dp4115
g3451
g3452
sg3453
F53.1
sg3454
F21.46
ssg3455
(dp4116
g3457
g3458
sg3459
F37.83
sg3460
F19.02
ssg3461
(dp4117
g3463
g3464
sg3465
F79.43
sg3466
F38.05
ssg3467
(dp4118
g3469
g3470
sg3471
F36.38
sg3472
F20.3
ssg3473
F404.9
sg3474
g136
(g140
S'\x85?nF\x91\xc2%@'
p4119
tp4120
Rp4121
sg3478
g136
(g140
S'\xebw\n\x86\xe6\xa9P@'
p4122
tp4123
Rp4124
sg3482
(dp4125
g3484
g3485
sg3486
F46.39
sg3487
F18.72
sssI78
(dp4126
g3417
F42.75
sg3418
g136
(g140
S'\xe7\xf6irv\xcc\xeb?'
p4127
tp4128
Rp4129
sg3422
F0.008
sg3423
(dp4130
g3425
g3426
sg3427
F43.54
sg3428
F17.57
ssg3429
g136
(g140
S'b\x1d\x18n\x84Nb@'
p4131
tp4132
Rp4133
sg3433
F278.4
sg3434
(lp4134
I15
aI20
aI25
aI30
aI34
aI50
asg3436
F200.0
sg3437
F0.98
sg3438
F0.98
sg3439
F0.98
sg3440
(lp4135
F0.2
aF0.2
aF0.19
aF0.19
aF0.14
aF0.12
asg3442
(dp4136
g3444
g3445
sg3446
F65.33
sg3447
F26.35
ssg3448
F0.635
sg3449
(dp4137
g3451
g3452
sg3453
F53.1
sg3454
F21.46
ssg3455
(dp4138
g3457
g3458
sg3459
F37.83
sg3460
F19.02
ssg3461
(dp4139
g3463
g3464
sg3465
F79.43
sg3466
F38.05
ssg3467
(dp4140
g3469
g3470
sg3471
F36.38
sg3472
F20.3
ssg3473
F404.9
sg3474
g136
(g140
S'\xba\xb5i(,E&@'
p4141
tp4142
Rp4143
sg3478
g136
(g140
S'+`\x1f\x13\xe8\x02Q@'
p4144
tp4145
Rp4146
sg3482
(dp4147
g3484
g3485
sg3486
F46.39
sg3487
F18.72
sssI84
(dp4148
g3417
F42.75
sg3418
g136
(g140
S'\xf9?-\xcd\x93\x88\xea?'
p4149
tp4150
Rp4151
sg3422
F0.008
sg3423
(dp4152
g3425
g3426
sg3427
F43.54
sg3428
F17.57
ssg3429
g136
(g140
S'\xcaj\xaa\x15\xbeba@'
p4153
tp4154
Rp4155
sg3433
F278.4
sg3434
(lp4156
I15
aI20
aI25
aI30
aI34
aI50
asg3436
F200.0
sg3437
F0.98
sg3438
F0.98
sg3439
F0.98
sg3440
(lp4157
F0.2
aF0.2
aF0.19
aF0.19
aF0.14
aF0.12
asg3442
(dp4158
g3444
g3445
sg3446
F65.33
sg3447
F26.35
ssg3448
F0.635
sg3449
(dp4159
g3451
g3452
sg3453
F53.1
sg3454
F21.46
ssg3455
(dp4160
g3457
g3458
sg3459
F37.83
sg3460
F19.02
ssg3461
(dp4161
g3463
g3464
sg3465
F79.43
sg3466
F38.05
ssg3467
(dp4162
g3469
g3470
sg3471
F36.38
sg3472
F20.3
ssg3473
F404.9
sg3474
g136
(g140
S'\x02U\xb1\xfck\x18%@'
p4163
tp4164
Rp4165
sg3478
g136
(g140
S'h\xf4\x8e\xa6\xf25P@'
p4166
tp4167
Rp4168
sg3482
(dp4169
g3484
g3485
sg3486
F46.39
sg3487
F18.72
sssI87
(dp4170
g3417
F42.75
sg3418
g136
(g140
S'\x0bze&\x06\xcd\xea?'
p4171
tp4172
Rp4173
sg3422
F0.008
sg3423
(dp4174
g3425
g3426
sg3427
F43.54
sg3428
F17.57
ssg3429
g136
(g140
S'\xeb\x8fx\x9c\x91\x94a@'
p4175
tp4176
Rp4177
sg3433
F278.4
sg3434
(lp4178
I15
aI20
aI25
aI30
aI34
aI50
asg3436
F200.0
sg3437
F0.98
sg3438
F0.98
sg3439
F0.98
sg3440
(lp4179
F0.2
aF0.2
aF0.19
aF0.19
aF0.14
aF0.12
asg3442
(dp4180
g3444
g3445
sg3446
F65.33
sg3447
F26.35
ssg3448
F0.635
sg3449
(dp4181
g3451
g3452
sg3453
F53.1
sg3454
F21.46
ssg3455
(dp4182
g3457
g3458
sg3459
F37.83
sg3460
F19.02
ssg3461
(dp4183
g3463
g3464
sg3465
F79.43
sg3466
F38.05
ssg3467
(dp4184
g3469
g3470
sg3471
F36.38
sg3472
F20.3
ssg3473
F404.9
sg3474
g136
(g140
S'\xa4\xf8@\xbd\xfaW%@'
p4185
tp4186
Rp4187
sg3478
g136
(g140
S"'\x89\x04\x03CaP@"
p4188
tp4189
Rp4190
sg3482
(dp4191
g3484
g3485
sg3486
F46.39
sg3487
F18.72
sssI90
(dp4192
g3417
F42.75
sg3418
g136
(g140
S'\xb9\x10K\xfbj\x96\xea?'
p4193
tp4194
Rp4195
sg3422
F0.008
sg3423
(dp4196
g3425
g3426
sg3427
F43.54
sg3428
F17.57
ssg3429
g136
(g140
S'\x89\xfa\x97^\xd1la@'
p4197
tp4198
Rp4199
sg3433
F278.4
sg3434
(lp4200
I15
aI20
aI25
aI30
aI34
aI50
asg3436
F200.0
sg3437
F0.98
sg3438
F0.98
sg3439
F0.98
sg3440
(lp4201
F0.2
aF0.2
aF0.19
aF0.19
aF0.14
aF0.12
asg3442
(dp4202
g3444
g3445
sg3446
F65.33
sg3447
F26.35
ssg3448
F0.635
sg3449
(dp4203
g3451
g3452
sg3453
F53.1
sg3454
F21.46
ssg3455
(dp4204
g3457
g3458
sg3459
F37.83
sg3460
F19.02
ssg3461
(dp4205
g3463
g3464
sg3465
F79.43
sg3466
F38.05
ssg3467
(dp4206
g3469
g3470
sg3471
F36.38
sg3472
F20.3
ssg3473
F404.9
sg3474
g136
(g140
S'j\xbb:\x15F%%@'
p4207
tp4208
Rp4209
sg3478
g136
(g140
S'\x81\xd2\xbd\xd1\xb4>P@'
p4210
tp4211
Rp4212
sg3482
(dp4213
g3484
g3485
sg3486
F46.39
sg3487
F18.72
sssI93
(dp4214
g3417
F42.75
sg3418
g136
(g140
S'J~6Do\r\xeb?'
p4215
tp4216
Rp4217
sg3422
F0.008
sg3423
(dp4218
g3425
g3426
sg3427
F43.54
sg3428
F17.57
ssg3429
g136
(g140
S'\xf0\xc9\x1a\xfdt\xc3a@'
p4219
tp4220
Rp4221
sg3433
F278.4
sg3434
(lp4222
I15
aI20
aI25
aI30
aI34
aI50
asg3436
F200.0
sg3437
F0.98
sg3438
F0.98
sg3439
F0.98
sg3440
(lp4223
F0.2
aF0.2
aF0.19
aF0.19
aF0.14
aF0.12
asg3442
(dp4224
g3444
g3445
sg3446
F65.33
sg3447
F26.35
ssg3448
F0.635
sg3449
(dp4225
g3451
g3452
sg3453
F53.1
sg3454
F21.46
ssg3455
(dp4226
g3457
g3458
sg3459
F37.83
sg3460
F19.02
ssg3461
(dp4227
g3463
g3464
sg3465
F79.43
sg3466
F38.05
ssg3467
(dp4228
g3469
g3470
sg3471
F36.38
sg3472
F20.3
ssg3473
F404.9
sg3474
g136
(g140
S'q3\xcc\x0f\xca\x93%@'
p4229
tp4230
Rp4231
sg3478
g136
(g140
S'\xd7\xcd\xe2\x87\x05\x8aP@'
p4232
tp4233
Rp4234
sg3482
(dp4235
g3484
g3485
sg3486
F46.39
sg3487
F18.72
sssI96
(dp4236
g3417
F42.75
sg3418
g136
(g140
S'\xf0\xf6~a\x8f\xbf\xea?'
p4237
tp4238
Rp4239
sg3422
F0.008
sg3423
(dp4240
g3425
g3426
sg3427
F43.54
sg3428
F17.57
ssg3429
g136
(g140
S'\xe8\xe6k\x82\xc4\x8aa@'
p4241
tp4242
Rp4243
sg3433
F278.4
sg3434
(lp4244
I15
aI20
aI25
aI30
aI34
aI50
asg3436
F200.0
sg3437
F0.98
sg3438
F0.98
sg3439
F0.98
sg3440
(lp4245
F0.2
aF0.2
aF0.19
aF0.19
aF0.14
aF0.12
asg3442
(dp4246
g3444
g3445
sg3446
F65.33
sg3447
F26.35
ssg3448
F0.635
sg3449
(dp4247
g3451
g3452
sg3453
F53.1
sg3454
F21.46
ssg3455
(dp4248
g3457
g3458
sg3459
F37.83
sg3460
F19.02
ssg3461
(dp4249
g3463
g3464
sg3465
F79.43
sg3466
F38.05
ssg3467
(dp4250
g3469
g3470
sg3471
F36.38
sg3472
F20.3
ssg3473
F404.9
sg3474
g136
(g140
S'\xc25\xfd*zK%@'
p4251
tp4252
Rp4253
sg3478
g136
(g140
S'0\xaaj\xda\xbdXP@'
p4254
tp4255
Rp4256
sg3482
(dp4257
g3484
g3485
sg3486
F46.39
sg3487
F18.72
sssI99
(dp4258
g3417
F42.75
sg3418
g136
(g140
S'|\xed\xbd3\xcd9\xeb?'
p4259
tp4260
Rp4261
sg3422
F0.008
sg3423
(dp4262
g3425
g3426
sg3427
F43.54
sg3428
F17.57
ssg3429
g136
(g140
S'\xab\x05\x8b\x15\xc1\xe3a@'
p4263
tp4264
Rp4265
sg3433
F278.4
sg3434
(lp4266
I15
aI20
aI25
aI30
aI34
aI50
asg3436
F200.0
sg3437
F0.98
sg3438
F0.98
sg3439
F0.98
sg3440
(lp4267
F0.2
aF0.2
aF0.19
aF0.19
aF0.14
aF0.12
asg3442
(dp4268
g3444
g3445
sg3446
F65.33
sg3447
F26.35
ssg3448
F0.635
sg3449
(dp4269
g3451
g3452
sg3453
F53.1
sg3454
F21.46
ssg3455
(dp4270
g3457
g3458
sg3459
F37.83
sg3460
F19.02
ssg3461
(dp4271
g3463
g3464
sg3465
F79.43
sg3466
F38.05
ssg3467
(dp4272
g3469
g3470
sg3471
F36.38
sg3472
F20.3
ssg3473
F404.9
sg3474
g136
(g140
S'D?\\\xb7\xfc\xbc%@'
p4273
tp4274
Rp4275
sg3478
g136
(g140
S'5\x82v\xf9\x18\xa6P@'
p4276
tp4277
Rp4278
sg3482
(dp4279
g3484
g3485
sg3486
F46.39
sg3487
F18.72
sssI102
(dp4280
g3417
F42.75
sg3418
g136
(g140
S'%\xd3\xb1\t\xe6\xdd\xea?'
p4281
tp4282
Rp4283
sg3422
F0.008
sg3423
(dp4284
g3425
g3426
sg3427
F43.54
sg3428
F17.57
ssg3429
g136
(g140
S'56oN\xda\xa0a@'
p4285
tp4286
Rp4287
sg3433
F278.4
sg3434
(lp4288
I15
aI20
aI25
aI30
aI34
aI50
asg3436
F200.0
sg3437
F0.98
sg3438
F0.98
sg3439
F0.98
sg3440
(lp4289
F0.2
aF0.2
aF0.19
aF0.19
aF0.14
aF0.12
asg3442
(dp4290
g3444
g3445
sg3446
F65.33
sg3447
F26.35
ssg3448
F0.635
sg3449
(dp4291
g3451
g3452
sg3453
F53.1
sg3454
F21.46
ssg3455
(dp4292
g3457
g3458
sg3459
F37.83
sg3460
F19.02
ssg3461
(dp4293
g3463
g3464
sg3465
F79.43
sg3466
F38.05
ssg3467
(dp4294
g3469
g3470
sg3471
F36.38
sg3472
F20.3
ssg3473
F404.9
sg3474
g136
(g140
S'<\x02Q\x10\xa6g%@'
p4295
tp4296
Rp4297
sg3478
g136
(g140
S'\x8a\xd9\xda\xb0\xf0kP@'
p4298
tp4299
Rp4300
sg3482
(dp4301
g3484
g3485
sg3486
F46.39
sg3487
F18.72
sssI105
(dp4302
g3417
F42.75
sg3418
g136
(g140
S'\x9e\x81\\\x99\x06\x1a\xeb?'
p4303
tp4304
Rp4305
sg3422
F0.008
sg3423
(dp4306
g3425
g3426
sg3427
F43.54
sg3428
F17.57
ssg3429
g136
(g140
S'\x81\x1a)p\x9f\xcca@'
p4307
tp4308
Rp4309
sg3433
F278.4
sg3434
(lp4310
I15
aI20
aI25
aI30
aI34
aI50
asg3436
F200.0
sg3437
F0.98
sg3438
F0.98
sg3439
F0.98
sg3440
(lp4311
F0.2
aF0.2
aF0.19
aF0.19
aF0.14
aF0.12
asg3442
(dp4312
g3444
g3445
sg3446
F65.33
sg3447
F26.35
ssg3448
F0.635
sg3449
(dp4313
g3451
g3452
sg3453
F53.1
sg3454
F21.46
ssg3455
(dp4314
g3457
g3458
sg3459
F37.83
sg3460
F19.02
ssg3461
(dp4315
g3463
g3464
sg3465
F79.43
sg3466
F38.05
ssg3467
(dp4316
g3469
g3470
sg3471
F36.38
sg3472
F20.3
ssg3473
F404.9
sg3474
g136
(g140
S'\xd2\xc8\x01({\x9f%@'
p4317
tp4318
Rp4319
sg3478
g136
(g140
S'\xf3\xdb\xc4K\xfd\x91P@'
p4320
tp4321
Rp4322
sg3482
(dp4323
g3484
g3485
sg3486
F46.39
sg3487
F18.72
sssI108
(dp4324
g3417
F42.75
sg3418
g136
(g140
S'\x18\x8b\xe3\x95\xc2\xed\xea?'
p4325
tp4326
Rp4327
sg3422
F0.008
sg3423
(dp4328
g3425
g3426
sg3427
F43.54
sg3428
F17.57
ssg3429
g136
(g140
S'\x9dg}6f\xaca@'
p4329
tp4330
Rp4331
sg3433
F278.4
sg3434
(lp4332
I15
aI20
aI25
aI30
aI34
aI50
asg3436
F200.0
sg3437
F0.98
sg3438
F0.98
sg3439
F0.98
sg3440
(lp4333
F0.2
aF0.2
aF0.19
aF0.19
aF0.14
aF0.12
asg3442
(dp4334
g3444
g3445
sg3446
F65.33
sg3447
F26.35
ssg3448
F0.635
sg3449
(dp4335
g3451
g3452
sg3453
F53.1
sg3454
F21.46
ssg3455
(dp4336
g3457
g3458
sg3459
F37.83
sg3460
F19.02
ssg3461
(dp4337
g3463
g3464
sg3465
F79.43
sg3466
F38.05
ssg3467
(dp4338
g3469
g3470
sg3471
F36.38
sg3472
F20.3
ssg3473
F404.9
sg3474
g136
(g140
S'\x0c-\x7f\x92`v%@'
p4339
tp4340
Rp4341
sg3478
g136
(g140
S'\xf1O\x92A\xfauP@'
p4342
tp4343
Rp4344
sg3482
(dp4345
g3484
g3485
sg3486
F46.39
sg3487
F18.72
sssI111
(dp4346
g3417
F42.75
sg3418
g136
(g140
S'\xc9\x8eg\x07\x175\xeb?'
p4347
tp4348
Rp4349
sg3422
F0.008
sg3423
(dp4350
g3425
g3426
sg3427
F43.54
sg3428
F17.57
ssg3429
g136
(g140
S'\xbb\x93\x8d\nS\xe0a@'
p4351
tp4352
Rp4353
sg3433
F278.4
sg3434
(lp4354
I15
aI20
aI25
aI30
aI34
aI50
asg3436
F200.0
sg3437
F0.98
sg3438
F0.98
sg3439
F0.98
sg3440
(lp4355
F0.2
aF0.2
aF0.19
aF0.19
aF0.14
aF0.12
asg3442
(dp4356
g3444
g3445
sg3446
F65.33
sg3447
F26.35
ssg3448
F0.635
sg3449
(dp4357
g3451
g3452
sg3453
F53.1
sg3454
F21.46
ssg3455
(dp4358
g3457
g3458
sg3459
F37.83
sg3460
F19.02
ssg3461
(dp4359
g3463
g3464
sg3465
F79.43
sg3466
F38.05
ssg3467
(dp4360
g3469
g3470
sg3471
F36.38
sg3472
F20.3
ssg3473
F404.9
sg3474
g136
(g140
S'U\xe7\xc2\xb2\x9c\xb8%@'
p4361
tp4362
Rp4363
sg3478
g136
(g140
S'H\xdag\xb1\x1d\xa3P@'
p4364
tp4365
Rp4366
sg3482
(dp4367
g3484
g3485
sg3486
F46.39
sg3487
F18.72
sssI114
(dp4368
g3417
F42.75
sg3418
g136
(g140
S'9\xe6c\xdf~!\xeb?'
p4369
tp4370
Rp4371
sg3422
F0.008
sg3423
(dp4372
g3425
g3426
sg3427
F43.54
sg3428
F17.57
ssg3429
g136
(g140
S'\xf4\xe9\xfe}\x0f\xd2a@'
p4373
tp4374
Rp4375
sg3433
F278.4
sg3434
(lp4376
I15
aI20
aI25
aI30
aI34
aI50
asg3436
F200.0
sg3437
F0.98
sg3438
F0.98
sg3439
F0.98
sg3440
(lp4377
F0.2
aF0.2
aF0.19
aF0.19
aF0.14
aF0.12
asg3442
(dp4378
g3444
g3445
sg3446
F65.33
sg3447
F26.35
ssg3448
F0.635
sg3449
(dp4379
g3451
g3452
sg3453
F53.1
sg3454
F21.46
ssg3455
(dp4380
g3457
g3458
sg3459
F37.83
sg3460
F19.02
ssg3461
(dp4381
g3463
g3464
sg3465
F79.43
sg3466
F38.05
ssg3467
(dp4382
g3469
g3470
sg3471
F36.38
sg3472
F20.3
ssg3473
F404.9
sg3474
g136
(g140
S'\xab\x81\xbf\xd6j\xa6%@'
p4383
tp4384
Rp4385
sg3478
g136
(g140
S'\x9d\x89\x15h\xb7\x96P@'
p4386
tp4387
Rp4388
sg3482
(dp4389
g3484
g3485
sg3486
F46.39
sg3487
F18.72
sssI117
(dp4390
g3417
F42.75
sg3418
g136
(g140
S'\x9dB\xacS\x17\xbc\xea?'
p4391
tp4392
Rp4393
sg3422
F0.008
sg3423
(dp4394
g3425
g3426
sg3427
F43.54
sg3428
F17.57
ssg3429
g136
(g140
S'\xc8M7\x0b>\x88a@'
p4395
tp4396
Rp4397
sg3433
F278.4
sg3434
(lp4398
I15
aI20
aI25
aI30
aI34
aI50
asg3436
F200.0
sg3437
F0.98
sg3438
F0.98
sg3439
F0.98
sg3440
(lp4399
F0.2
aF0.2
aF0.19
aF0.19
aF0.14
aF0.12
asg3442
(dp4400
g3444
g3445
sg3446
F65.33
sg3447
F26.35
ssg3448
F0.635
sg3449
(dp4401
g3451
g3452
sg3453
F53.1
sg3454
F21.46
ssg3455
(dp4402
g3457
g3458
sg3459
F37.83
sg3460
F19.02
ssg3461
(dp4403
g3463
g3464
sg3465
F79.43
sg3466
F38.05
ssg3467
(dp4404
g3469
g3470
sg3471
F36.38
sg3472
F20.3
ssg3473
F404.9
sg3474
g136
(g140
S'\x9a \xde\x8bAH%@'
p4405
tp4406
Rp4407
sg3478
g136
(g140
S'\x14T\xab\xe1\x8bVP@'
p4408
tp4409
Rp4410
sg3482
(dp4411
g3484
g3485
sg3486
F46.39
sg3487
F18.72
sssI120
(dp4412
g3417
F42.75
sg3418
g136
(g140
S'W=\xcdc\x9b\xd1\xea?'
p4413
tp4414
Rp4415
sg3422
F0.008
sg3423
(dp4416
g3425
g3426
sg3427
F43.54
sg3428
F17.57
ssg3429
g136
(g140
S'\xdf\x98\x19\xae\xe7\x97a@'
p4417
tp4418
Rp4419
sg3433
F278.4
sg3434
(lp4420
I15
aI20
aI25
aI30
aI34
aI50
asg3436
F200.0
sg3437
F0.98
sg3438
F0.98
sg3439
F0.98
sg3440
(lp4421
F0.2
aF0.2
aF0.19
aF0.19
aF0.14
aF0.12
asg3442
(dp4422
g3444
g3445
sg3446
F65.33
sg3447
F26.35
ssg3448
F0.635
sg3449
(dp4423
g3451
g3452
sg3453
F53.1
sg3454
F21.46
ssg3455
(dp4424
g3457
g3458
sg3459
F37.83
sg3460
F19.02
ssg3461
(dp4425
g3463
g3464
sg3465
F79.43
sg3466
F38.05
ssg3467
(dp4426
g3469
g3470
sg3471
F36.38
sg3472
F20.3
ssg3473
F404.9
sg3474
g136
(g140
S'\x8fR!-<\\%@'
p4427
tp4428
Rp4429
sg3478
g136
(g140
S'\xbd2\xe0s)dP@'
p4430
tp4431
Rp4432
sg3482
(dp4433
g3484
g3485
sg3486
F46.39
sg3487
F18.72
sssI123
(dp4434
g3417
F42.75
sg3418
g136
(g140
S'\xa5\x0e\x16\xa6GA\xeb?'
p4435
tp4436
Rp4437
sg3422
F0.008
sg3423
(dp4438
g3425
g3426
sg3427
F43.54
sg3428
F17.57
ssg3429
g136
(g140
S'<-Z\xb82\xe9a@'
p4439
tp4440
Rp4441
sg3433
F278.4
sg3434
(lp4442
I15
aI20
aI25
aI30
aI34
aI50
asg3436
F200.0
sg3437
F0.98
sg3438
F0.98
sg3439
F0.98
sg3440
(lp4443
F0.2
aF0.2
aF0.19
aF0.19
aF0.14
aF0.12
asg3442
(dp4444
g3444
g3445
sg3446
F65.33
sg3447
F26.35
ssg3448
F0.635
sg3449
(dp4445
g3451
g3452
sg3453
F53.1
sg3454
F21.46
ssg3455
(dp4446
g3457
g3458
sg3459
F37.83
sg3460
F19.02
ssg3461
(dp4447
g3463
g3464
sg3465
F79.43
sg3466
F38.05
ssg3467
(dp4448
g3469
g3470
sg3471
F36.38
sg3472
F20.3
ssg3473
F404.9
sg3474
g136
(g140
S'\xea\x14\xaej\xee\xc3%@'
p4449
tp4450
Rp4451
sg3478
g136
(g140
S'1G\xd2u\xd4\xaaP@'
p4452
tp4453
Rp4454
sg3482
(dp4455
g3484
g3485
sg3486
F46.39
sg3487
F18.72
sssI126
(dp4456
g3417
F42.75
sg3418
g136
(g140
S'}\x86o\xea\xfc\xc7\xea?'
p4457
tp4458
Rp4459
sg3422
F0.008
sg3423
(dp4460
g3425
g3426
sg3427
F43.54
sg3428
F17.57
ssg3429
g136
(g140
S'\x1f\x05w\x1a\xe7\x90a@'
p4461
tp4462
Rp4463
sg3433
F278.4
sg3434
(lp4464
I15
aI20
aI25
aI30
aI34
aI50
asg3436
F200.0
sg3437
F0.98
sg3438
F0.98
sg3439
F0.98
sg3440
(lp4465
F0.2
aF0.2
aF0.19
aF0.19
aF0.14
aF0.12
asg3442
(dp4466
g3444
g3445
sg3446
F65.33
sg3447
F26.35
ssg3448
F0.635
sg3449
(dp4467
g3451
g3452
sg3453
F53.1
sg3454
F21.46
ssg3455
(dp4468
g3457
g3458
sg3459
F37.83
sg3460
F19.02
ssg3461
(dp4469
g3463
g3464
sg3465
F79.43
sg3466
F38.05
ssg3467
(dp4470
g3469
g3470
sg3471
F36.38
sg3472
F20.3
ssg3473
F404.9
sg3474
g136
(g140
S'|\x96\xdc\x97MS%@'
p4471
tp4472
Rp4473
sg3478
g136
(g140
S'\x08\xe5\x12+\x13^P@'
p4474
tp4475
Rp4476
sg3482
(dp4477
g3484
g3485
sg3486
F46.39
sg3487
F18.72
ssssS'leaf_area'
p4478
(dp4479
I129
F0.013770400632140148
sI132
F0.014921657637763094
sI135
F0.019194438759433222
sI138
F0.01978132699094599
sI11
F0.0004434235963762771
sI141
F0.016559033822464164
sI14
F0.003960104344280312
sI144
F0.015075175762866372
sI17
F0.006856528162407844
sI147
F0.014886934795931117
sI20
F0.008914124387637298
sI150
F0.019923539132910496
sI23
F0.005099321923091621
sI27
F0.010970386346507691
sI30
F0.009336786309274252
sI33
F0.009972666825433794
sI36
F0.01188262208932088
sI39
F0.012205086303873645
sI42
F0.015552534419213998
sI45
F0.01784333876324098
sI48
F0.015553317541910402
sI51
F0.01645411281148487
sI54
F0.012947921736975013
sI57
F0.016252636602072223
sI60
F0.0134966480552227
sI63
F0.01654967075994209
sI66
F0.02110343963350499
sI69
F0.019298754445689948
sI72
F0.02000699705851538
sI75
F0.02089374807507666
sI78
F0.020722013160952818
sI84
F0.0016558955344122038
sI87
F0.004232657459393437
sI90
F0.005715667170288619
sI93
F0.008430392029431216
sI96
F0.013226061495541501
sI99
F0.013597548215456588
sI102
F0.013635391265740843
sI105
F0.012626549710736634
sI108
F0.008940917601346066
sI111
F0.011699106543430956
sI114
F0.010753987055751563
sI117
F0.00896414870491038
sI120
F0.014552814233525741
sI123
F0.012760377951556828
sI126
F0.011771883816782019
ssS'An'
p4480
(dp4481
I129
g136
(g140
S'(\x92\xcf\xcc\xee\xd8)@'
p4482
tp4483
Rp4484
sI132
g136
(g140
S'\xf8\xb5\x8a\x93V\n(@'
p4485
tp4486
Rp4487
sI135
g136
(g140
S'p\xbd!\x0c\xed\x1e*@'
p4488
tp4489
Rp4490
sI138
g136
(g140
S'H\x8d\xb0\xbe\x95U(@'
p4491
tp4492
Rp4493
sI11
g136
(g140
S'\xc8\x16\xca\x8b\x1dl(@'
p4494
tp4495
Rp4496
sI141
g136
(g140
S'`G\xc7\xda\x8f\xde(@'
p4497
tp4498
Rp4499
sI14
g136
(g140
S'\x98\x1a\xd7\r\xeb\x04*@'
p4500
tp4501
Rp4502
sI144
g136
(g140
S'\xb0\xbcz\x155*(@'
p4503
tp4504
Rp4505
sI17
g136
(g140
S'\xa0\xae\x8a\xb8#\xb3(@'
p4506
tp4507
Rp4508
sI147
g136
(g140
S'\xf8V5\xb1\xc4\xa5)@'
p4509
tp4510
Rp4511
sI20
g136
(g140
S'\x18.5\xa6\xcb\xd8)@'
p4512
tp4513
Rp4514
sI150
g136
(g140
S'\x98\xae\xfc\xcdr\xee(@'
p4515
tp4516
Rp4517
sI23
g136
(g140
S'\x10\t\x9fI\xd8\xd8(@'
p4518
tp4519
Rp4520
sI27
g136
(g140
S'\x18\xc2\t\\j\xea(@'
p4521
tp4522
Rp4523
sI30
g136
(g140
S'(\x92\xb5\xb0!N(@'
p4524
tp4525
Rp4526
sI33
g136
(g140
S'\xd8c\xc5\xa5\xa7g)@'
p4527
tp4528
Rp4529
sI36
g136
(g140
S'(<F\xa2\xb9`(@'
p4530
tp4531
Rp4532
sI39
g136
(g140
S'P\xe8bL\xae\x83(@'
p4533
tp4534
Rp4535
sI42
g136
(g140
S'@f\xe9c\x86B)@'
p4536
tp4537
Rp4538
sI45
g136
(g140
S'\xa0A\xa7>\xf16(@'
p4539
tp4540
Rp4541
sI48
g136
(g140
S'\xc0\xa7-$@\xdd(@'
p4542
tp4543
Rp4544
sI51
g136
(g140
S'\xf0#\x15zX\x85)@'
p4545
tp4546
Rp4547
sI54
g136
(g140
S'\xa8|\xca\xec\x12\xcb(@'
p4548
tp4549
Rp4550
sI57
g136
(g140
S'\xb0B\xe1s\xda\x07)@'
p4551
tp4552
Rp4553
sI60
g136
(g140
S'\x08\x03}\xd9\xae\xb3(@'
p4554
tp4555
Rp4556
sI63
g136
(g140
S'H\xaf^\xe5\xb2\x0c)@'
p4557
tp4558
Rp4559
sI66
g136
(g140
S'\xa86x\xf1b0(@'
p4560
tp4561
Rp4562
sI69
g136
(g140
S'\xa0i\xe6@\xa9\xbf)@'
p4563
tp4564
Rp4565
sI72
g136
(g140
S'H\x08\x81Q\xd8{(@'
p4566
tp4567
Rp4568
sI75
g136
(g140
S'`\x94\x9al|\x14)@'
p4569
tp4570
Rp4571
sI78
g136
(g140
S'\x10d\xab\x1e7\xb2)@'
p4572
tp4573
Rp4574
sI84
g136
(g140
S'\xf0\xf014\xc6\x8c(@'
p4575
tp4576
Rp4577
sI87
g136
(g140
S'\xc0\xdbQ\x97&\x14)@'
p4578
tp4579
Rp4580
sI90
g136
(g140
S'PA\x8fW\x84\x92(@'
p4581
tp4582
Rp4583
sI93
g136
(g140
S'X\xa3\xa5\xbe\xa6.)@'
p4584
tp4585
Rp4586
sI96
g136
(g140
S'\xe0p:\xba"\xf6(@'
p4587
tp4588
Rp4589
sI99
g136
(g140
S'@\x8d\xa1R\x03\xb0)@'
p4590
tp4591
Rp4592
sI102
g136
(g140
S'\x80RL\x81\x89~(@'
p4593
tp4594
Rp4595
sI105
g136
(g140
S'\xc8\xef9\xda\t1)@'
p4596
tp4597
Rp4598
sI108
g136
(g140
S'(\x04\xa1\xf9Z\xec(@'
p4599
tp4600
Rp4601
sI111
g136
(g140
S'@\x18\x1a\xa4\xe2Q)@'
p4602
tp4603
Rp4604
sI114
g136
(g140
S'`\xe9 \xbf\xc1\xfb(@'
p4605
tp4606
Rp4607
sI117
g136
(g140
S'\xc8\x8c\x9b\xd2d\xe6(@'
p4608
tp4609
Rp4610
sI120
g136
(g140
S"\xd0'\x90\xffA\xa0(@"
p4611
tp4612
Rp4613
sI123
g136
(g140
S'\xd0\xe2\xf4\xef\xd2\x85(@'
p4614
tp4615
Rp4616
sI126
g136
(g140
S'h\xdd\xee\x8d\xf7M(@'
p4617
tp4618
Rp4619
ssS'depth'
p4620
(dp4621
I152
F120.0
sI153
F120.0
sI151
F120.0
ssS'TopPosition'
p4622
(dp4623
I3
g878
sI4
g884
sI5
g890
sI6
g896
sI7
g902
sI9
g908
sI10
g914
sI11
g867
(g868
(I0
tp4624
g870
tp4625
Rp4626
(I1
(I3
tp4627
g140
I00
S'\xc5\xf5(\\\x8f\xc2\x1d\xc0n=\n\xd7\xa3p\x12\xc0\\\x8f\xc2\xf5(|G@'
p4628
tp4629
bsI12
g920
sI13
g926
sI14
g867
(g868
(I0
tp4630
g870
tp4631
Rp4632
(I1
(I3
tp4633
g140
I00
S'\xecQ\xb8\x1e\x85\xeb\x18\xc0|\xebQ\xb8\x1e\x85\xfb\xbfH\xe1z\x14\xaeGE@'
p4634
tp4635
bsI15
g932
sI16
g938
sI17
g867
(g868
(I0
tp4636
g870
tp4637
Rp4638
(I1
(I3
tp4639
g140
I00
S'kfffff\x04\xc0\xc2\xf5(\\\x8f\xc2\x1a\xc0\x1f\x85\xebQ\xb8\x9eE@'
p4640
tp4641
bsI18
g944
sI19
g950
sI20
g867
(g868
(I0
tp4642
g870
tp4643
Rp4644
(I1
(I3
tp4645
g140
I00
S'\xd0\xcc\xcc\xcc\xcc\xcc\xec?\x1e\x85\xebQ\xb8\x1e\xf1?{\x14\xaeG\xe1ZG@'
p4646
tp4647
bsI21
g956
sI22
g962
sI23
g867
(g868
(I0
tp4648
g870
tp4649
Rp4650
(I1
(I3
tp4651
g140
I00
S'\xaeG\xe1z\x14."@\x97\xc2\xf5(\\\x8f\x0e\xc0H\xe1z\x14\xaegK@'
p4652
tp4653
bsI24
g968
sI25
g974
sI26
g980
sI27
g867
(g868
(I0
tp4654
g870
tp4655
Rp4656
(I1
(I3
tp4657
g140
I00
S'\xcb\xcc\xcc\xcc\xccL @\xf8(\\\x8f\xc2u"\xc033333\x13N@'
p4658
tp4659
bsI28
g986
sI29
g992
sI30
g867
(g868
(I0
tp4660
g870
tp4661
Rp4662
(I1
(I3
tp4663
g140
I00
S'\xb9\x1e\x85\xebQ\xb8(@\xfb\xff\xff\xff\xff\xff\x1c@333333O@'
p4664
tp4665
bsI31
g998
sI32
g1004
sI33
g867
(g868
(I0
tp4666
g870
tp4667
Rp4668
(I1
(I3
tp4669
g140
I00
S"\xacG\xe1z\x14\xae#@\xa6p=\n\xd7\xa3'\xc0\xd7\xa3p=\n\x87Q@"
p4670
tp4671
bsI34
g1010
sI35
g1016
sI36
g867
(g868
(I0
tp4672
g870
tp4673
Rp4674
(I1
(I3
tp4675
g140
I00
S'\xafG\xe1z\x14\xae.@\xa8G\xe1z\x14\xae\x17@\xa4p=\n\xd7CQ@'
p4676
tp4677
bsI37
g1022
sI38
g1028
sI39
g867
(g868
(I0
tp4678
g870
tp4679
Rp4680
(I1
(I3
tp4681
g140
I00
S'\x99\x99\x99\x99\x99\x99/@%\x85\xebQ\xb8\x1e\x1c\xc0\xd7\xa3p=\ngR@'
p4682
tp4683
bsI40
g1034
sI41
g1040
sI42
g867
(g868
(I0
tp4684
g870
tp4685
Rp4686
(I1
(I3
tp4687
g140
I00
S'\xd7\xa3p=\n\xd7\x1f@\x98p=\n\xd7\xa3\xf8?fffff\x06T@'
p4688
tp4689
bsI43
g1046
sI44
g1052
sI45
g867
(g868
(I0
tp4690
g870
tp4691
Rp4692
(I1
(I3
tp4693
g140
I00
S"G\xe1z\x14\xae\xc78@\xe6z\x14\xaeGa'\xc0)\\\x8f\xc2\xf5\x18V@"
p4694
tp4695
bsI46
g1058
sI47
g1064
sI48
g867
(g868
(I0
tp4696
g870
tp4697
Rp4698
(I1
(I3
tp4699
g140
I00
S'\xa5p=\n\xd7\xa38@\x0f\xaeG\xe1z\x14"@\x85\xebQ\xb8\x1eeW@'
p4700
tp4701
bsI49
g1070
sI50
g1076
sI51
g867
(g868
(I0
tp4702
g870
tp4703
Rp4704
(I1
(I3
tp4705
g140
I00
S'\x97\x99\x99\x99\x99Y0@\xf8(\\\x8f\xc2u8\xc0R\xb8\x1e\x85\xeb\xb1Y@'
p4706
tp4707
bsI52
g1082
sI53
g1088
sI54
g867
(g868
(I0
tp4708
g870
tp4709
Rp4710
(I1
(I3
tp4711
g140
I00
S'\x1f\x85\xebQ\xb8^8@\xa5G\xe1z\x14\xae\x15@\xa4p=\n\xd7\xc3[@'
p4712
tp4713
bsI55
g1094
sI56
g1100
sI57
g867
(g868
(I0
tp4714
g870
tp4715
Rp4716
(I1
(I3
tp4717
g140
I00
S'\xa2p=\n\xd7c9@ifffff6\xc0\\\x8f\xc2\xf5(<^@'
p4718
tp4719
bsI58
g1106
sI59
g1112
sI60
g867
(g868
(I0
tp4720
g870
tp4721
Rp4722
(I1
(I3
tp4723
g140
I00
S'\x00\x00\x00\x00\x00\x80:@\xb8\xd6\xa3p=\n\xef?\x9a\x99\x99\x99\x99\xd9_@'
p4724
tp4725
bsI61
g1118
sI62
g1124
sI63
g867
(g868
(I0
tp4726
g870
tp4727
Rp4728
(I1
(I3
tp4729
g140
I00
S'13333\xb3?@\x92\xc2\xf5(\\\x0f3\xc033333\xe3`@'
p4730
tp4731
bsI64
g1130
sI65
g1136
sI66
g867
(g868
(I0
tp4732
g870
tp4733
Rp4734
(I1
(I3
tp4735
g140
I00
S'ffffffA@\x81\xc2\xf5(\\\x8f\x1e@\xc3\xf5(\\\x8fja@'
p4736
tp4737
bsI67
g1142
sI68
g1148
sI69
g867
(g868
(I0
tp4738
g870
tp4739
Rp4740
(I1
(I3
tp4741
g140
I00
S'\x8d\xc2\xf5(\\O5@hfffff5\xc0q=\n\xd7\xa38c@'
p4742
tp4743
bsI70
g1154
sI71
g1160
sI72
g867
(g868
(I0
tp4744
g870
tp4745
Rp4746
(I1
(I3
tp4747
g140
I00
S'\xc3\xf5(\\\x8f\x82F@\x07)\\\x8f\xc2\xf5\x16\xc0{\x14\xaeG\xe1Bc@'
p4748
tp4749
bsI73
g1166
sI74
g1172
sI75
g867
(g868
(I0
tp4750
g870
tp4751
Rp4752
(I1
(I3
tp4753
g140
I00
S'=\n\xd7\xa3p=<@\xe2\xa3p=\n\xd7\x1b\xc0\xf6(\\\x8f\xc2=f@'
p4754
tp4755
bsI76
g1178
sI77
g1184
sI78
g867
(g868
(I0
tp4756
g870
tp4757
Rp4758
(I1
(I3
tp4759
g140
I00
S'\x9b\x99\x99\x99\x99\x19A@x\x14\xaeG\xe1\xfa0@\x1f\x85\xebQ\xb8Nd@'
p4760
tp4761
bsI79
g1190
sI81
g1196
sI82
g1202
sI83
g1208
sI84
g867
(g868
(I0
tp4762
g870
tp4763
Rp4764
(I1
(I3
tp4765
g140
I00
S'\xecQ\xb8\x1e\x85\xeb%\xc0\xd4(\\\x8f\xc2\xf5\xe0\xbffffff\xc6E@'
p4766
tp4767
bsI85
g1214
sI86
g1220
sI87
g867
(g868
(I0
tp4768
g870
tp4769
Rp4770
(I1
(I3
tp4771
g140
I00
S'333333/\xc0\xd5z\x14\xaeG\xe1\x06\xc0\xf6(\\\x8f\xc2\xf5G@'
p4772
tp4773
bsI88
g1226
sI89
g1232
sI90
g867
(g868
(I0
tp4774
g870
tp4775
Rp4776
(I1
(I3
tp4777
g140
I00
S'\xff\xff\xff\xff\xff\xff*\xc0v=\n\xd7\xa3p\x15@\x14\xaeG\xe1z4G@'
p4778
tp4779
bsI91
g1238
sI92
g1244
sI93
g867
(g868
(I0
tp4780
g870
tp4781
Rp4782
(I1
(I3
tp4783
g140
I00
S'\xa4p=\n\xd7\xe37\xc0\x94[\x8f\xc2\xf5(\xdc\xbfH\xe1z\x14\xae\xe7J@'
p4784
tp4785
bsI94
g1250
sI95
g1256
sI96
g867
(g868
(I0
tp4786
g870
tp4787
Rp4788
(I1
(I3
tp4789
g140
I00
S'\xff\xff\xff\xff\xff\x7f4\xc0\x0e\xd7\xa3p=\x8a!@\x1f\x85\xebQ\xb8\xdeG@'
p4790
tp4791
bsI97
g1262
sI98
g1268
sI99
g867
(g868
(I0
tp4792
g870
tp4793
Rp4794
(I1
(I3
tp4795
g140
I00
S'R\xb8\x1e\x85\xeb\x916\xc0\x03\xaeG\xe1z\x14\x08\xc033333SR@'
p4796
tp4797
bsI100
g1274
sI101
g1280
sI102
g867
(g868
(I0
tp4798
g870
tp4799
Rp4800
(I1
(I3
tp4801
g140
I00
S'\x8d\xc2\xf5(\\\x0f;\xc0t=\n\xd7\xa3\xf01@\x1f\x85\xebQ\xb8~L@'
p4802
tp4803
bsI103
g1286
sI104
g1292
sI105
g867
(g868
(I0
tp4804
g870
tp4805
Rp4806
(I1
(I3
tp4807
g140
I00
S'\xd7\xa3p=\nwA\xc0\xe5\xa3p=\n\xd7\x1a@\x1f\x85\xebQ\xb8^P@'
p4808
tp4809
bsI106
g1298
sI107
g1304
sI108
g867
(g868
(I0
tp4810
g870
tp4811
Rp4812
(I1
(I3
tp4813
g140
I00
S'&\\\x8f\xc2\xf5(>\xc0\x92\xc2\xf5(\\\xcf9@{\x14\xaeG\xe1\xcaS@'
p4814
tp4815
bsI109
g1310
sI110
g1316
sI111
g867
(g868
(I0
tp4816
g870
tp4817
Rp4818
(I1
(I3
tp4819
g140
I00
S'\x8f\xc2\xf5(\\\xefE\xc0%{\x14\xaeG\xe1\xfe?\n\xd7\xa3p=\xeaT@'
p4820
tp4821
bsI112
g1322
sI113
g1328
sI114
g867
(g868
(I0
tp4822
g870
tp4823
Rp4824
(I1
(I3
tp4825
g140
I00
S'\x13\xaeG\xe1z\xb4A\xc0K\xe1z\x14\xae\xc77@=\n\xd7\xa3p}U@'
p4826
tp4827
bsI115
g1334
sI116
g1340
sI117
g867
(g868
(I0
tp4828
g870
tp4829
Rp4830
(I1
(I3
tp4831
g140
I00
S'\\\x8f\xc2\xf5(\xfcG\xc0e\xb8\x1e\x85\xebQ\x14@\\\x8f\xc2\xf5(lZ@'
p4832
tp4833
bsI118
g1346
sI119
g1352
sI120
g867
(g868
(I0
tp4834
g870
tp4835
Rp4836
(I1
(I3
tp4837
g140
I00
S'&\\\x8f\xc2\xf5\xa8>\xc0\xa6p=\n\xd7\x03@@\xecQ\xb8\x1e\x85+Y@'
p4838
tp4839
bsI121
g1358
sI122
g1364
sI123
g867
(g868
(I0
tp4840
g870
tp4841
Rp4842
(I1
(I3
tp4843
g140
I00
S'\x8e\xc2\xf5(\\\xefH\xc0\xdc\xa3p=\n\x974@\x00\x00\x00\x00\x00pZ@'
p4844
tp4845
bsI124
g1370
sI125
g1376
sI126
g867
(g868
(I0
tp4846
g870
tp4847
Rp4848
(I1
(I3
tp4849
g140
I00
S'O\xb8\x1e\x85\xebQ=\xc0hffff\x86A@\\\x8f\xc2\xf5(\xec\\@'
p4850
tp4851
bsI127
g1382
sI128
g1388
sI129
g867
(g868
(I0
tp4852
g870
tp4853
Rp4854
(I1
(I3
tp4855
g140
I00
S'\x85\xebQ\xb8\x1e\xe5I\xc0\xf6Q\xb8\x1e\x85\xeb"@\xa4p=\n\xd7\x03`@'
p4856
tp4857
bsI130
g1394
sI131
g1400
sI132
g867
(g868
(I0
tp4858
g870
tp4859
Rp4860
(I1
(I3
tp4861
g140
I00
S'\xc1\xf5(\\\x8fBF\xc0s=\n\xd7\xa3\x90B@\x00\x00\x00\x00\x00`_@'
p4862
tp4863
bsI133
g1406
sI134
g1412
sI135
g867
(g868
(I0
tp4864
g870
tp4865
Rp4866
(I1
(I3
tp4867
g140
I00
S"q=\n\xd7\xa3pH\xc0'\xaeG\xe1z\x14\x14@\x8f\xc2\xf5(\\\x9fa@"
p4868
tp4869
bsI136
g1418
sI137
g1424
sI138
g867
(g868
(I0
tp4870
g870
tp4871
Rp4872
(I1
(I3
tp4873
g140
I00
S'\x08\xd7\xa3p=JD\xc0\xf8(\\\x8f\xc2\xb5@@\x8f\xc2\xf5(\\ga@'
p4874
tp4875
bsI139
g1430
sI140
g1436
sI141
g867
(g868
(I0
tp4876
g870
tp4877
Rp4878
(I1
(I3
tp4879
g140
I00
S'\xb8\x1e\x85\xebQHP\xc0\x95\xc2\xf5(\\O?@\xa4p=\n\xd7\xc3`@'
p4880
tp4881
bsI142
g1442
sI143
g1448
sI144
g867
(g868
(I0
tp4882
g870
tp4883
Rp4884
(I1
(I3
tp4885
g140
I00
S'13333\x93E\xc0L\xe1z\x14\xaeG>@fffff>c@'
p4886
tp4887
bsI145
g1454
sI146
g1460
sI147
g867
(g868
(I0
tp4888
g870
tp4889
Rp4890
(I1
(I3
tp4891
g140
I00
S'\\\x8f\xc2\xf5(\xccS\xc0\xf4Q\xb8\x1e\x85+;@\xc3\xf5(\\\x8fzc@'
p4892
tp4893
bsI148
g1466
sI149
g1472
sI150
g867
(g868
(I0
tp4894
g870
tp4895
Rp4896
(I1
(I3
tp4897
g140
I00
S'&\\\x8f\xc2\xf5(M\xc0K\xe1z\x14\xae\x07I@\x00\x00\x00\x00\x00\x18d@'
p4898
tp4899
bsI151
(lp4900
I0
aI0
aI0
asI152
(lp4901
I0
aI0
aI0
asI153
(lp4902
I0
aI0
aI0
asI156
(lp4903
g136
(g140
S'\\\x8f\xc2\xf5(\xccS\xc0'
p4904
tp4905
Rp4906
ag136
(g140
S'\xf8(\\\x8f\xc2u8\xc0'
p4907
tp4908
Rp4909
aI0
assS'u'
p4910
(dp4911
I129
g136
(g140
S'\\\x8f\xc2\xf5(\\\x01@'
p4912
tp4913
Rp4914
sI132
g4914
sI135
g4914
sI138
g4914
sI11
g4914
sI141
g4914
sI14
g4914
sI144
g4914
sI17
g4914
sI147
g4914
sI20
g4914
sI150
g4914
sI23
g4914
sI27
g4914
sI30
g4914
sI33
g4914
sI36
g4914
sI39
g4914
sI42
g4914
sI45
g4914
sI48
g4914
sI51
g4914
sI54
g4914
sI57
g4914
sI60
g4914
sI63
g4914
sI66
g4914
sI69
g4914
sI72
g4914
sI75
g4914
sI78
g4914
sI84
g4914
sI87
g4914
sI90
g4914
sI93
g4914
sI96
g4914
sI99
g4914
sI102
g4914
sI105
g4914
sI108
g4914
sI111
g4914
sI114
g4914
sI117
g4914
sI120
g4914
sI123
g4914
sI126
g4914
ssS'FluxC'
p4915
(dp4916
I3
g136
(g140
S'BV\x0bI5\x97\x1d@'
p4917
tp4918
Rp4919
sI4
g136
(g140
S'BV\x0bI5\x97\x1d@'
p4920
tp4921
Rp4922
sI5
g136
(g140
S'BV\x0bI5\x97\x1d@'
p4923
tp4924
Rp4925
sI6
g136
(g140
S'BV\x0bI5\x97\x1d@'
p4926
tp4927
Rp4928
sI7
g136
(g140
S'BV\x0bI5\x97\x1d@'
p4929
tp4930
Rp4931
sI9
g136
(g140
S'^%d@]\x93\x0e@'
p4932
tp4933
Rp4934
sI10
g136
(g140
S'\x15tS<\xbe-v?'
p4935
tp4936
Rp4937
sI11
g136
(g140
S'\x15tS<\xbe-v?'
p4938
tp4939
Rp4940
sI12
g136
(g140
S'\xa4\xfbEaF\x88\x0e@'
p4941
tp4942
Rp4943
sI13
g136
(g140
S'\x83r`\x16\xc0`\xaa?'
p4944
tp4945
Rp4946
sI14
g136
(g140
S'\x83r`\x16\xc0`\xaa?'
p4947
tp4948
Rp4949
sI15
g136
(g140
S'\xday\xec`\xc3\x1e\x0e@'
p4950
tp4951
Rp4952
sI16
g136
(g140
S'\xcb\x08^\x92i\xad\xb5?'
p4953
tp4954
Rp4955
sI17
g136
(g140
S'\xcb\x08^\x92i\xad\xb5?'
p4956
tp4957
Rp4958
sI18
g136
(g140
S'\x94\x89Y\x14Xq\r@'
p4959
tp4960
Rp4961
sI19
g136
(g140
S'\xb6Z\x10\xeb\xd0}\xbd?'
p4962
tp4963
Rp4964
sI20
g136
(g140
S'\xb6Z\x10\xeb\xd0}\xbd?'
p4965
tp4966
Rp4967
sI21
g136
(g140
S'\xbe\x06\x01\x8di\x85\x0c@'
p4968
tp4969
Rp4970
sI22
g136
(g140
S'\xe8x\x1e\xb5\xce7\xb0?'
p4971
tp4972
Rp4973
sI23
g136
(g140
S'\xe8x\x1e\xb5\xce7\xb0?'
p4974
tp4975
Rp4976
sI24
g136
(g140
S'\xf7\x12X\x17\xab\x03\x0c@'
p4977
tp4978
Rp4979
sI25
g136
(g140
S'\xf7\x12X\x17\xab\x03\x0c@'
p4980
tp4981
Rp4982
sI26
g136
(g140
S'\xc5V\x19\xceP~\xc1?'
p4983
tp4984
Rp4985
sI27
g136
(g140
S'\xc5V\x19\xceP~\xc1?'
p4986
tp4987
Rp4988
sI28
g136
(g140
S'\x8b}v\n\xc6\xeb\n@'
p4989
tp4990
Rp4991
sI29
g136
(g140
S'\xafL\x96\x8f\x1f\x0c\xbd?'
p4992
tp4993
Rp4994
sI30
g136
(g140
S'\xafL\x96\x8f\x1f\x0c\xbd?'
p4995
tp4996
Rp4997
sI31
g136
(g140
S'&\xcb\xf9\re\x03\n@'
p4998
tp4999
Rp5000
sI32
g136
(g140
S'|\xa4\xcdM\xf66\xc0?'
p5001
tp5002
Rp5003
sI33
g136
(g140
S'|\xa4\xcdM\xf66\xc0?'
p5004
tp5005
Rp5006
sI34
g136
(g140
S'\xde\xf0\x1c\xa9\xf5\xff\x08@'
p5007
tp5008
Rp5009
sI35
g136
(g140
S'{\xb2P\xd3\xfe\x89\xc2?'
p5010
tp5011
Rp5012
sI36
g136
(g140
S'{\xb2P\xd3\xfe\x89\xc2?'
p5013
tp5014
Rp5015
sI37
g136
(g140
S'\xb6\xe5\xe7\xbbU\xd7\x07@'
p5016
tp5017
Rp5018
sI38
g136
(g140
S'\xe6\xa3\x950\x18&\xc3?'
p5019
tp5020
Rp5021
sI39
g136
(g140
S'\xe6\xa3\x950\x18&\xc3?'
p5022
tp5023
Rp5024
sI40
g136
(g140
S'x\x8b\xde8\xf4\xa4\x06@'
p5025
tp5026
Rp5027
sI41
g136
(g140
S'\x88\xb7\x03\xd7\x88$\xc9?'
p5028
tp5029
Rp5030
sI42
g136
(g140
S'\x88\xb7\x03\xd7\x88$\xc9?'
p5031
tp5032
Rp5033
sI43
g136
(g140
S'\x00Pn\xab\xab\x12\x05@'
p5034
tp5035
Rp5036
sI44
g136
(g140
S'\xd8\xd2Ln\x07\xa7\xcb?'
p5037
tp5038
Rp5039
sI45
g136
(g140
S'\xd8\xd2Ln\x07\xa7\xcb?'
p5040
tp5041
Rp5042
sI46
g136
(g140
S'\xd2\x82\x894;X\x03@'
p5043
tp5044
Rp5045
sI47
g136
(g140
S'\xa8\xcf\x8b\x80\x0c\xc0\xc8?'
p5046
tp5047
Rp5048
sI48
g136
(g140
S'\xa8\xcf\x8b\x80\x0c\xc0\xc8?'
p5049
tp5050
Rp5051
sI49
g136
(g140
S'\xd7\xc5\x80l:\xcc\x01@'
p5052
tp5053
Rp5054
sI50
g136
(g140
S'\x8c\xb4\xd6\xa5\x06\xe0\xca?'
p5055
tp5056
Rp5057
sI51
g136
(g140
S'\x8c\xb4\xd6\xa5\x06\xe0\xca?'
p5058
tp5059
Rp5060
sI52
g136
(g140
S'\x8eZ#\x02:\x1e\x00@'
p5061
tp5062
Rp5063
sI53
g136
(g140
S'f\xce\xbbS\x9c\x8b\xc4?'
p5064
tp5065
Rp5066
sI54
g136
(g140
S'f\xce\xbbS\x9c\x8b\xc4?'
p5067
tp5068
Rp5069
sI55
g136
(g140
S'P;\xcfy\x00\xab\xfd?'
p5070
tp5071
Rp5072
sI56
g136
(g140
S'\xf0\xc2\x82\xad?\t\xca?'
p5073
tp5074
Rp5075
sI57
g136
(g140
S'\xf0\xc2\x82\xad?\t\xca?'
p5076
tp5077
Rp5078
sI58
g136
(g140
S'\xf2\xe2\x1e\x84\xd8i\xfa?'
p5079
tp5080
Rp5081
sI59
g136
(g140
S'\x1f\xbea7NV\xc5?'
p5082
tp5083
Rp5084
sI60
g136
(g140
S'\x1f\xbea7NV\xc5?'
p5085
tp5086
Rp5087
sI61
g136
(g140
S'.\xab2\xbd\x0e\xbf\xf7?'
p5088
tp5089
Rp5090
sI62
g136
(g140
S'v\x97\x85\t2\x88\xca?'
p5091
tp5092
Rp5093
sI63
g136
(g140
S'v\x97\x85\t2\x88\xca?'
p5094
tp5095
Rp5096
sI64
g136
(g140
S'?\xf8\x01|\x08n\xf4?'
p5097
tp5098
Rp5099
sI65
g136
(g140
S'H\x9c6\xec\xc7U\xd0?'
p5100
tp5101
Rp5102
sI66
g136
(g140
S'H\x9c6\xec\xc7U\xd0?'
p5103
tp5104
Rp5105
sI67
g136
(g140
S'-Q\xf4\x80\x96X\xf0?'
p5106
tp5107
Rp5108
sI68
g136
(g140
S'\xc5ce\x90~\xcd\xcf?'
p5109
tp5110
Rp5111
sI69
g136
(g140
S'\xc5ce\x90~\xcd\xcf?'
p5112
tp5113
Rp5114
sI70
g136
(g140
S'hI\xcf]\xcd\xbd\xe8?'
p5115
tp5116
Rp5117
sI71
g136
(g140
S'\x1e\x90\xf7\xfd\xa5Y\xcf?'
p5118
tp5119
Rp5120
sI72
g136
(g140
S'\x1e\x90\xf7\xfd\xa5Y\xcf?'
p5121
tp5122
Rp5123
sI73
g136
(g140
S'`eQ\xdec\xe7\xe0?'
p5124
tp5125
Rp5126
sI74
g136
(g140
S'Kx\x90\x8f\xbc\xc4\xd0?'
p5127
tp5128
Rp5129
sI75
g136
(g140
S'Kx\x90\x8f\xbc\xc4\xd0?'
p5130
tp5131
Rp5132
sI76
g136
(g140
S'vR\x12-\x0b\n\xd1?'
p5133
tp5134
Rp5135
sI77
g136
(g140
S'vR\x12-\x0b\n\xd1?'
p5136
tp5137
Rp5138
sI78
g136
(g140
S'vR\x12-\x0b\n\xd1?'
p5139
tp5140
Rp5141
sI79
g136
(g140
S'%\x87\xb2Q\r\x9b\x0c@'
p5142
tp5143
Rp5144
sI81
g136
(g140
S'%\x87\xb2Q\r\x9b\x0c@'
p5145
tp5146
Rp5147
sI82
g136
(g140
S'%\x87\xb2Q\r\x9b\x0c@'
p5148
tp5149
Rp5150
sI83
g136
(g140
S'\xfc\xfe6\x13Y\xd0\x94?'
p5151
tp5152
Rp5153
sI84
g136
(g140
S'\xfc\xfe6\x13Y\xd0\x94?'
p5154
tp5155
Rp5156
sI85
g136
(g140
S"'\x19\x8c\x9flq\x0c@"
p5157
tp5158
Rp5159
sI86
g136
(g140
S'\xd2\xe3\x16\xdb\x9e,\xab?'
p5160
tp5161
Rp5162
sI87
g136
(g140
S'\xd2\xe3\x16\xdb\x9e,\xab?'
p5163
tp5164
Rp5165
sI88
g136
(g140
S'\x98\xbd\x1f$\xba\x04\x0c@'
p5166
tp5167
Rp5168
sI89
g136
(g140
S'\xd3o\x0f\x19-\xfa\xb1?'
p5169
tp5170
Rp5171
sI90
g136
(g140
S'\xd3o\x0f\x19-\xfa\xb1?'
p5172
tp5173
Rp5174
sI91
g136
(g140
S'\x19BW\xbb\xe8t\x0b@'
p5175
tp5176
Rp5177
sI92
g136
(g140
S'\xee\x93)\xa6\x84,\xbb?'
p5178
tp5179
Rp5180
sI93
g136
(g140
S'\xee\x93)\xa6\x84,\xbb?'
p5181
tp5182
Rp5183
sI94
g136
(g140
S'z\xf5%\x96\x84\x9b\n@'
p5184
tp5185
Rp5186
sI95
g136
(g140
S'[I\xee\x80\x0b!\xc5?'
p5187
tp5188
Rp5189
sI96
g136
(g140
S'[I\xee\x80\x0b!\xc5?'
p5190
tp5191
Rp5192
sI97
g136
(g140
S'\xe4\x10\x17\xdesI\t@'
p5193
tp5194
Rp5195
sI98
g136
(g140
S'#\x91\xfa\xd5\xbaZ\xc6?'
p5196
tp5197
Rp5198
sI99
g136
(g140
S'#\x91\xfa\xd5\xbaZ\xc6?'
p5199
tp5200
Rp5201
sI100
g136
(g140
S'\xd2g\xb70\xc8\xe3\x07@'
p5202
tp5203
Rp5204
sI101
g136
(g140
S'g\xefB\x1b\x14`\xc5?'
p5205
tp5206
Rp5207
sI102
g136
(g140
S'g\xefB\x1b\x14`\xc5?'
p5208
tp5209
Rp5210
sI103
g136
(g140
S'\xdc8\x03\xef\xc6\x8d\x06@'
p5211
tp5212
Rp5213
sI104
g136
(g140
S'$%\xf3tv[\xc4?'
p5214
tp5215
Rp5216
sI105
g136
(g140
S'$%\xf3tv[\xc4?'
p5217
tp5218
Rp5219
sI106
g136
(g140
S'\x8a\x06\xb4\x87\x0fH\x05@'
p5220
tp5221
Rp5222
sI107
g136
(g140
S'\x8e\xf4#\xeb\xea\x85\xbc?'
p5223
tp5224
Rp5225
sI108
g136
(g140
S'\x8e\xf4#\xeb\xea\x85\xbc?'
p5226
tp5227
Rp5228
sI109
g136
(g140
S'\xe6\xe6Z0\xe0c\x04@'
p5229
tp5230
Rp5231
sI110
g136
(g140
S'Y\xbbx\xdcC\xf5\xc2?'
p5232
tp5233
Rp5234
sI111
g136
(g140
S'Y\xbbx\xdcC\xf5\xc2?'
p5235
tp5236
Rp5237
sI112
g136
(g140
S'0[\x93\xf2\x8b4\x03@'
p5238
tp5239
Rp5240
sI113
g136
(g140
S'\x7f\xa3P\xa7\xe91\xc1?'
p5241
tp5242
Rp5243
sI114
g136
(g140
S'\x7f\xa3P\xa7\xe91\xc1?'
p5244
tp5245
Rp5246
sI115
g136
(g140
S'\xf8P\x1eXm!\x02@'
p5247
tp5248
Rp5249
sI116
g136
(g140
S'\xefvu\xc1\x0c\x92\xbc?'
p5250
tp5251
Rp5252
sI117
g136
(g140
S'\xefvu\xc1\x0c\x92\xbc?'
p5253
tp5254
Rp5255
sI118
g136
(g140
S'A\xa5\x12\xf2\xdc<\x01@'
p5256
tp5257
Rp5258
sI119
g136
(g140
S'N\xac\xb0\x0b\xa9\xef\xc6?'
p5259
tp5260
Rp5261
sI120
g136
(g140
S'N\xac\xb0\x0b\xa9\xef\xc6?'
p5262
tp5263
Rp5264
sI121
g136
(g140
S'\xf94\xaf\xc2\xc4\x9b\xff?'
p5265
tp5266
Rp5267
sI122
g136
(g140
S'\xea\n\x05\xc0\xdf\x06\xc4?'
p5268
tp5269
Rp5270
sI123
g136
(g140
S'\xea\n\x05\xc0\xdf\x06\xc4?'
p5271
tp5272
Rp5273
sI124
g136
(g140
S'\x9c\x93\xae\xca\xe8\x1a\xfd?'
p5274
tp5275
Rp5276
sI125
g136
(g140
S'\xab[)*\xa2O\xc2?'
p5277
tp5278
Rp5279
sI126
g136
(g140
S'\xab[)*\xa2O\xc2?'
p5280
tp5281
Rp5282
sI127
g136
(g140
S"'hi\x85\xf4\xd0\xfa?"
p5283
tp5284
Rp5285
sI128
g136
(g140
S'\xbbU9K\x8a\xc7\xc6?'
p5286
tp5287
Rp5288
sI129
g136
(g140
S'\xbbU9K\x8a\xc7\xc6?'
p5289
tp5290
Rp5291
sI130
g136
(g140
S'p=\x02<\x03\xf8\xf7?'
p5292
tp5293
Rp5294
sI131
g136
(g140
S'\xdb%\xe5\xaeN\xf5\xc6?'
p5295
tp5296
Rp5297
sI132
g136
(g140
S'\xdb%\xe5\xaeN\xf5\xc6?'
p5298
tp5299
Rp5300
sI133
g136
(g140
S'\xb5\x98%fY\x19\xf5?'
p5301
tp5302
Rp5303
sI134
g136
(g140
S'@P\x18\xdfA\x0b\xd0?'
p5304
tp5305
Rp5306
sI135
g136
(g140
S'@P\x18\xdfA\x0b\xd0?'
p5307
tp5308
Rp5309
sI136
g136
(g140
S'\xa5\x84_\xee\x88\x16\xf1?'
p5310
tp5311
Rp5312
sI137
g136
(g140
S'\x97\xd0Lk\xaf\xce\xce?'
p5313
tp5314
Rp5315
sI138
g136
(g140
S'\x97\xd0Lk\xaf\xce\xce?'
p5316
tp5317
Rp5318
sI139
g136
(g140
S'$\xd5\xeb\x01fy\xea?'
p5319
tp5320
Rp5321
sI140
g136
(g140
S'im\x94\xb0$[\xca?'
p5322
tp5323
Rp5324
sI141
g136
(g140
S'im\x94\xb0$[\xca?'
p5325
tp5326
Rp5327
sI142
g136
(g140
S'\xca\xb9\xc6\xd5\x9c\xe2\xe3?'
p5328
tp5329
Rp5330
sI143
g136
(g140
S'\x0e\xdb\x1e\xbf\x85P\xc7?'
p5331
tp5332
Rp5333
sI144
g136
(g140
S'\x0e\xdb\x1e\xbf\x85P\xc7?'
p5334
tp5335
Rp5336
sI145
g136
(g140
S'\x0e\x06\xfe\xcb\xf6\x1c\xdc?'
p5337
tp5338
Rp5339
sI146
g136
(g140
S'\x05(;f\xa0o\xc8?'
p5340
tp5341
Rp5342
sI147
g136
(g140
S'\x05(;f\xa0o\xc8?'
p5343
tp5344
Rp5345
sI148
g136
(g140
S'\x18\xe4\xc01M\xca\xcf?'
p5346
tp5347
Rp5348
sI149
g136
(g140
S'\x18\xe4\xc01M\xca\xcf?'
p5349
tp5350
Rp5351
sI150
g136
(g140
S'\x18\xe4\xc01M\xca\xcf?'
p5352
tp5353
Rp5354
sI151
g136
(g140
S'BV\x0bI5\x97\x1d@'
p5355
tp5356
Rp5357
sI152
g136
(g140
S'BV\x0bI5\x97\x1d@'
p5358
tp5359
Rp5360
sI153
g136
(g140
S'BV\x0bI5\x97\x1d@'
p5361
tp5362
Rp5363
ssS'Ei10'
p5364
(dp5365
I129
F47.760810578757734
sI132
F43.34643801158676
sI135
F54.19591447701527
sI138
F41.03905675438665
sI11
F38.63595131694265
sI141
F53.99972099924195
sI14
F53.92298448928857
sI144
F38.63438560540519
sI17
F41.627592465442014
sI147
F47.743113533195086
sI20
F50.0210664557906
sI150
F52.05572699245535
sI23
F37.793236438287096
sI27
F40.58458704016404
sI156
F7.835195172413791
sI30
F35.2649835139728
sI33
F46.43296527554986
sI36
F35.54902676250937
sI39
F36.68220285037128
sI42
F48.38821353223113
sI45
F36.858271000852156
sI48
F41.557254199609396
sI51
F51.98290688680251
sI54
F44.29540592659775
sI57
F45.08462290555058
sI60
F45.47006641412246
sI63
F44.562493221046786
sI66
F40.90308382247666
sI69
F56.70994072980722
sI72
F42.16957025557639
sI75
F50.79182368980989
sI78
F65.39388677087057
sI84
F36.544807825587526
sI87
F41.326743659057485
sI90
F37.46491631709177
sI93
F46.396749260146045
sI96
F40.339076203318065
sI99
F50.246387873046615
sI102
F42.598819112943836
sI105
F47.458257685761495
sI108
F43.83020515953489
sI111
F49.82285503401047
sI114
F48.099450463158306
sI117
F40.088452531584956
sI120
F41.66842128941257
sI123
F50.926026805473995
sI126
F40.95451553111513
ssS'gb'
p5366
(dp5367
I129
g136
(g140
S'x\xa1\xc7\xd6\x94\xf6\xf6?'
p5368
tp5369
Rp5370
sI132
g136
(g140
S'\x8f\xed*\x86^>\xf7?'
p5371
tp5372
Rp5373
sI135
g136
(g140
S'n\xe2\x00x<\xa1\xf1?'
p5374
tp5375
Rp5376
sI138
g136
(g140
S'\xe9]I\x05Q\xec\xf3?'
p5377
tp5378
Rp5379
sI11
g136
(g140
S'\x19\xf5\xb5\xf9\xb7\xb9\n@'
p5380
tp5381
Rp5382
sI141
g136
(g140
S'H9\x82\xadt\xd1\xf2?'
p5383
tp5384
Rp5385
sI14
g136
(g140
S'$^\x08\xdb\xa5\xc7\x00@'
p5386
tp5387
Rp5388
sI144
g136
(g140
S'\xa1\x94\x98\x97\x9c\xcf\xf5?'
p5389
tp5390
Rp5391
sI17
g136
(g140
S'\xa8\xa2\x1d\x12g\xc3\xfa?'
p5392
tp5393
Rp5394
sI147
g136
(g140
S'\n\x95\r1 m\xf3?'
p5395
tp5396
Rp5397
sI20
g136
(g140
S'3r\x8e\xa2K\xf5\xf7?'
p5398
tp5399
Rp5400
sI150
g136
(g140
S'\x8ei^\xb35\xb4\xf7?'
p5401
tp5402
Rp5403
sI23
g136
(g140
S'\xf2\x1c\xf2\x9b\xeaL\xf9?'
p5404
tp5405
Rp5406
sI27
g136
(g140
S'\xf4\xc8\xcc\x91i^\xf7?'
p5407
tp5408
Rp5409
sI30
g136
(g140
S'=\x82\xdd\xbf\x9e\xec\xf4?'
p5410
tp5411
Rp5412
sI33
g136
(g140
S'^\xd1l*\x18\x96\xf7?'
p5413
tp5414
Rp5415
sI36
g136
(g140
S'\xfb(\xecz\xf6w\xf4?'
p5416
tp5417
Rp5418
sI39
g136
(g140
S'!i!KZ(\xf6?'
p5419
tp5420
Rp5421
sI42
g136
(g140
S'\x07&\xb4.\xa5a\xf7?'
p5422
tp5423
Rp5424
sI45
g136
(g140
S'P\xb0\x9c\x10\xdf\xd7\xf4?'
p5425
tp5426
Rp5427
sI48
g136
(g140
S'E\xdb*\x12\xba\xf8\xf2?'
p5428
tp5429
Rp5430
sI51
g136
(g140
S'\xf4\x89\xe0\xc3X^\xf3?'
p5431
tp5432
Rp5433
sI54
g136
(g140
S'wVXi=\xd2\xf5?'
p5434
tp5435
Rp5436
sI57
g136
(g140
S'\xdeu"\x8e\x92\xb3\xf4?'
p5437
tp5438
Rp5439
sI60
g136
(g140
S'8\\8Ilx\xf7?'
p5440
tp5441
Rp5442
sI63
g136
(g140
S'\n\x95\r1 m\xf3?'
p5443
tp5444
Rp5445
sI66
g136
(g140
S'\xe7 &\x80M\xea\xf4?'
p5446
tp5447
Rp5448
sI69
g136
(g140
S'\xd65\xf9\xd7\xff\xf6\xf2?'
p5449
tp5450
Rp5451
sI72
g136
(g140
S'e\xfa\xa4\x18S\xf0\xf3?'
p5452
tp5453
Rp5454
sI75
g136
(g140
S'\xe0-\x9a\xafe\xef\xf5?'
p5455
tp5456
Rp5457
sI78
g136
(g140
S'\x9d-\xc1\x8ez\x02\xf4?'
p5458
tp5459
Rp5460
sI84
g136
(g140
S'\x167e\xd67\x07\x01@'
p5461
tp5462
Rp5463
sI87
g136
(g140
S'\xcb\x1d#\x7f\x9bT\xfb?'
p5464
tp5465
Rp5466
sI90
g136
(g140
S'\x92\r-0F\x18\xf9?'
p5467
tp5468
Rp5469
sI93
g136
(g140
S'\xa7~\xe6L\xebk\xf5?'
p5470
tp5471
Rp5472
sI96
g136
(g140
S'~$Od+\xd8\xf6?'
p5473
tp5474
Rp5475
sI99
g136
(g140
S'\xc6\x1dJ_\xae(\xfa?'
p5476
tp5477
Rp5478
sI102
g136
(g140
S'f}\xaef\xac?\xf5?'
p5479
tp5480
Rp5481
sI105
g136
(g140
S'\x1d\x1bS\xdf~\x87\xf5?'
p5482
tp5483
Rp5484
sI108
g136
(g140
S'\x96dYa\x8e\x85\xf7?'
p5485
tp5486
Rp5487
sI111
g136
(g140
S'\xc6\xdd\r\x06\xa1\xc5\xf4?'
p5488
tp5489
Rp5490
sI114
g136
(g140
S'\x12\x98\x1aO\xad\xe5\xf4?'
p5491
tp5492
Rp5493
sI117
g136
(g140
S'\xb0\x9f\xe2#\xe6u\xf5?'
p5494
tp5495
Rp5496
sI120
g136
(g140
S"3\xef\xf25`'\xf4?"
p5497
tp5498
Rp5499
sI123
g136
(g140
S'\xa3K\xda\x15\x89d\xf4?'
p5500
tp5501
Rp5502
sI126
g136
(g140
S'VV\xb0\x9e\xa1D\xf4?'
p5503
tp5504
Rp5505
sssS'date'
p5506
S'20120801110000'
p5507
sS'_id'
p5508
I156
sbacopenalea.plantgl.scenegraph._pglsg
Scene
p5509
(tRp5510
a.